

Microchip Technology PIC18 LITE Macro Assembler V1.12 build 49521 
                                                                                               Sat Aug 30 13:41:15 2014

HI-TECH Software Omniscient Code Generator (Lite mode) build 49521
     1  0000                     opt subtitle "HI-TECH Software Omniscient Code Generator (Lite mode) build 49521"
     2                           opt subtitle "HI-TECH Software Omniscient Code Generator (Lite mode) build 49521"
     3                           
     4                           opt pagewidth 120
     5                           
     6                           	opt lm
     7                           
     8  0000                     porta	equ	0F80h
     9  0000                     portb	equ	0F81h
    10  0000                     portc	equ	0F82h
    11  0000                     portd	equ	0F83h
    12  0000                     porte	equ	0F84h
    13  0000                     lata	equ	0F89h
    14  0000                     latb	equ	0F8Ah
    15  0000                     latc	equ	0F8Bh
    16  0000                     latd	equ	0F8Ch
    17  0000                     late	equ	0F8Dh
    18  0000                     trisa	equ	0F92h
    19  0000                     trisb	equ	0F93h
    20  0000                     trisc	equ	0F94h
    21  0000                     trisd	equ	0F95h
    22  0000                     trise	equ	0F96h
    23  0000                     pie1	equ	0F9Dh
    24  0000                     pir1	equ	0F9Eh
    25  0000                     ipr1	equ	0F9Fh
    26  0000                     pie2	equ	0FA0h
    27  0000                     pir2	equ	0FA1h
    28  0000                     ipr2	equ	0FA2h
    29  0000                     t3con	equ	0FB1h
    30  0000                     tmr3l	equ	0FB2h
    31  0000                     tmr3h	equ	0FB3h
    32  0000                     ccp1con	equ	0FBDh
    33  0000                     ccpr1l	equ	0FBEh
    34  0000                     ccpr1h	equ	0FBFh
    35  0000                     adcon1	equ	0FC1h
    36  0000                     adcon0	equ	0FC2h
    37  0000                     adresl	equ	0FC3h
    38  0000                     adresh	equ	0FC4h
    39  0000                     sspcon2	equ	0FC5h
    40  0000                     sspcon1	equ	0FC6h
    41  0000                     sspstat	equ	0FC7h
    42  0000                     sspadd	equ	0FC8h
    43  0000                     sspbuf	equ	0FC9h
    44  0000                     t2con	equ	0FCAh
    45  0000                     pr2	equ	0FCBh
    46  0000                     tmr2	equ	0FCCh
    47  0000                     t1con	equ	0FCDh
    48  0000                     tmr1l	equ	0FCEh
    49  0000                     tmr1h	equ	0FCFh
    50  0000                     rcon	equ	0FD0h
    51  0000                     wdtcon	equ	0FD1h
    52  0000                     lvdcon	equ	0FD2h
    53  0000                     osccon	equ	0FD3h
    54  0000                     t0con	equ	0FD5h
    55  0000                     tmr0l	equ	0FD6h
    56  0000                     tmr0h	equ	0FD7h
    57  0000                     status	equ	0FD8h
    58  0000                     fsr2	equ	0FD9h
    59  0000                     fsr2l	equ	0FD9h
    60  0000                     fsr2h	equ	0FDAh
    61  0000                     plusw2	equ	0FDBh
    62  0000                     preinc2	equ	0FDCh
    63  0000                     postdec2	equ	0FDDh
    64  0000                     postinc2	equ	0FDEh
    65  0000                     indf2	equ	0FDFh
    66  0000                     bsr	equ	0FE0h
    67  0000                     fsr1	equ	0FE1h
    68  0000                     fsr1l	equ	0FE1h
    69  0000                     fsr1h	equ	0FE2h
    70  0000                     plusw1	equ	0FE3h
    71  0000                     preinc1	equ	0FE4h
    72  0000                     postdec1	equ	0FE5h
    73  0000                     postinc1	equ	0FE6h
    74  0000                     indf1	equ	0FE7h
    75  0000                     wreg	equ	0FE8h
    76  0000                     fsr0	equ	0FE9h
    77  0000                     fsr0l	equ	0FE9h
    78  0000                     fsr0h	equ	0FEAh
    79  0000                     plusw0	equ	0FEBh
    80  0000                     preinc0	equ	0FECh
    81  0000                     postdec0	equ	0FEDh
    82  0000                     postinc0	equ	0FEEh
    83  0000                     indf0	equ	0FEFh
    84  0000                     intcon3	equ	0FF0h
    85  0000                     intcon2	equ	0FF1h
    86  0000                     intcon	equ	0FF2h
    87  0000                     prod	equ	0FF3h
    88  0000                     prodl	equ	0FF3h
    89  0000                     prodh	equ	0FF4h
    90  0000                     tablat	equ	0FF5h
    91  0000                     tblptr	equ	0FF6h
    92  0000                     tblptrl	equ	0FF6h
    93  0000                     tblptrh	equ	0FF7h
    94  0000                     tblptru	equ	0FF8h
    95  0000                     pcl	equ	0FF9h
    96  0000                     pclat	equ	0FFAh
    97  0000                     pclath	equ	0FFAh
    98  0000                     pclatu	equ	0FFBh
    99  0000                     stkptr	equ	0FFCh
   100  0000                     tosl	equ	0FFDh
   101  0000                     tosh	equ	0FFEh
   102  0000                     tosu	equ	0FFFh
   103                           opt subtitle "HI-TECH Software Omniscient Code Generator (Lite mode) build 49521"
   104                           
   105  0000                     	endm
   106                           opt subtitle "HI-TECH Software Omniscient Code Generator (Lite mode) build 49521"
   107                           
   108                           opt pagewidth 120
   109  0000                     ANSELA equ 0F38h ;# 
   110                           opt subtitle "HI-TECH Software Omniscient Code Generator (Lite mode) build 49521"
   111  0000                     ANSELB equ 0F39h ;# 
   112                           opt subtitle "HI-TECH Software Omniscient Code Generator (Lite mode) build 49521"
   113  0000                     ANSELC equ 0F3Ah ;# 
   114                           opt subtitle "HI-TECH Software Omniscient Code Generator (Lite mode) build 49521"
   115  0000                     PMD2 equ 0F3Dh ;# 
   116                           opt subtitle "HI-TECH Software Omniscient Code Generator (Lite mode) build 49521"
   117  0000                     PMD1 equ 0F3Eh ;# 
   118                           opt subtitle "HI-TECH Software Omniscient Code Generator (Lite mode) build 49521"
   119  0000                     PMD0 equ 0F3Fh ;# 
   120                           opt subtitle "HI-TECH Software Omniscient Code Generator (Lite mode) build 49521"
   121  0000                     VREFCON2 equ 0F40h ;# 
   122                           opt subtitle "HI-TECH Software Omniscient Code Generator (Lite mode) build 49521"
   123  0000                     DACCON1 equ 0F40h ;# 
   124                           opt subtitle "HI-TECH Software Omniscient Code Generator (Lite mode) build 49521"
   125  0000                     VREFCON1 equ 0F41h ;# 
   126                           opt subtitle "HI-TECH Software Omniscient Code Generator (Lite mode) build 49521"
   127  0000                     DACCON0 equ 0F41h ;# 
   128                           opt subtitle "HI-TECH Software Omniscient Code Generator (Lite mode) build 49521"
   129  0000                     VREFCON0 equ 0F42h ;# 
   130                           opt subtitle "HI-TECH Software Omniscient Code Generator (Lite mode) build 49521"
   131  0000                     FVRCON equ 0F42h ;# 
   132                           opt subtitle "HI-TECH Software Omniscient Code Generator (Lite mode) build 49521"
   133  0000                     CTMUICON equ 0F43h ;# 
   134                           opt subtitle "HI-TECH Software Omniscient Code Generator (Lite mode) build 49521"
   135  0000                     CTMUICONH equ 0F43h ;# 
   136                           opt subtitle "HI-TECH Software Omniscient Code Generator (Lite mode) build 49521"
   137  0000                     CTMUCONL equ 0F44h ;# 
   138                           opt subtitle "HI-TECH Software Omniscient Code Generator (Lite mode) build 49521"
   139  0000                     CTMUCON1 equ 0F44h ;# 
   140                           opt subtitle "HI-TECH Software Omniscient Code Generator (Lite mode) build 49521"
   141  0000                     CTMUCONH equ 0F45h ;# 
   142                           opt subtitle "HI-TECH Software Omniscient Code Generator (Lite mode) build 49521"
   143  0000                     CTMUCON0 equ 0F45h ;# 
   144                           opt subtitle "HI-TECH Software Omniscient Code Generator (Lite mode) build 49521"
   145  0000                     SRCON1 equ 0F46h ;# 
   146                           opt subtitle "HI-TECH Software Omniscient Code Generator (Lite mode) build 49521"
   147  0000                     SRCON0 equ 0F47h ;# 
   148                           opt subtitle "HI-TECH Software Omniscient Code Generator (Lite mode) build 49521"
   149  0000                     CCPTMRS1 equ 0F48h ;# 
   150                           opt subtitle "HI-TECH Software Omniscient Code Generator (Lite mode) build 49521"
   151  0000                     CCPTMRS0 equ 0F49h ;# 
   152                           opt subtitle "HI-TECH Software Omniscient Code Generator (Lite mode) build 49521"
   153  0000                     T6CON equ 0F4Ah ;# 
   154                           opt subtitle "HI-TECH Software Omniscient Code Generator (Lite mode) build 49521"
   155  0000                     PR6 equ 0F4Bh ;# 
   156                           opt subtitle "HI-TECH Software Omniscient Code Generator (Lite mode) build 49521"
   157  0000                     TMR6 equ 0F4Ch ;# 
   158                           opt subtitle "HI-TECH Software Omniscient Code Generator (Lite mode) build 49521"
   159  0000                     T5GCON equ 0F4Dh ;# 
   160                           opt subtitle "HI-TECH Software Omniscient Code Generator (Lite mode) build 49521"
   161  0000                     T5CON equ 0F4Eh ;# 
   162                           opt subtitle "HI-TECH Software Omniscient Code Generator (Lite mode) build 49521"
   163  0000                     TMR5 equ 0F4Fh ;# 
   164                           opt subtitle "HI-TECH Software Omniscient Code Generator (Lite mode) build 49521"
   165  0000                     TMR5L equ 0F4Fh ;# 
   166                           opt subtitle "HI-TECH Software Omniscient Code Generator (Lite mode) build 49521"
   167  0000                     TMR5H equ 0F50h ;# 
   168                           opt subtitle "HI-TECH Software Omniscient Code Generator (Lite mode) build 49521"
   169  0000                     T4CON equ 0F51h ;# 
   170                           opt subtitle "HI-TECH Software Omniscient Code Generator (Lite mode) build 49521"
   171  0000                     PR4 equ 0F52h ;# 
   172                           opt subtitle "HI-TECH Software Omniscient Code Generator (Lite mode) build 49521"
   173  0000                     TMR4 equ 0F53h ;# 
   174                           opt subtitle "HI-TECH Software Omniscient Code Generator (Lite mode) build 49521"
   175  0000                     CCP5CON equ 0F54h ;# 
   176                           opt subtitle "HI-TECH Software Omniscient Code Generator (Lite mode) build 49521"
   177  0000                     CCPR5 equ 0F55h ;# 
   178                           opt subtitle "HI-TECH Software Omniscient Code Generator (Lite mode) build 49521"
   179  0000                     CCPR5L equ 0F55h ;# 
   180                           opt subtitle "HI-TECH Software Omniscient Code Generator (Lite mode) build 49521"
   181  0000                     CCPR5H equ 0F56h ;# 
   182                           opt subtitle "HI-TECH Software Omniscient Code Generator (Lite mode) build 49521"
   183  0000                     CCP4CON equ 0F57h ;# 
   184                           opt subtitle "HI-TECH Software Omniscient Code Generator (Lite mode) build 49521"
   185  0000                     CCPR4 equ 0F58h ;# 
   186                           opt subtitle "HI-TECH Software Omniscient Code Generator (Lite mode) build 49521"
   187  0000                     CCPR4L equ 0F58h ;# 
   188                           opt subtitle "HI-TECH Software Omniscient Code Generator (Lite mode) build 49521"
   189  0000                     CCPR4H equ 0F59h ;# 
   190                           opt subtitle "HI-TECH Software Omniscient Code Generator (Lite mode) build 49521"
   191  0000                     PSTR3CON equ 0F5Ah ;# 
   192                           opt subtitle "HI-TECH Software Omniscient Code Generator (Lite mode) build 49521"
   193  0000                     ECCP3AS equ 0F5Bh ;# 
   194                           opt subtitle "HI-TECH Software Omniscient Code Generator (Lite mode) build 49521"
   195  0000                     CCP3AS equ 0F5Bh ;# 
   196                           opt subtitle "HI-TECH Software Omniscient Code Generator (Lite mode) build 49521"
   197  0000                     PWM3CON equ 0F5Ch ;# 
   198                           opt subtitle "HI-TECH Software Omniscient Code Generator (Lite mode) build 49521"
   199  0000                     CCP3CON equ 0F5Dh ;# 
   200                           opt subtitle "HI-TECH Software Omniscient Code Generator (Lite mode) build 49521"
   201  0000                     CCPR3 equ 0F5Eh ;# 
   202                           opt subtitle "HI-TECH Software Omniscient Code Generator (Lite mode) build 49521"
   203  0000                     CCPR3L equ 0F5Eh ;# 
   204                           opt subtitle "HI-TECH Software Omniscient Code Generator (Lite mode) build 49521"
   205  0000                     CCPR3H equ 0F5Fh ;# 
   206                           opt subtitle "HI-TECH Software Omniscient Code Generator (Lite mode) build 49521"
   207  0000                     SLRCON equ 0F60h ;# 
   208                           opt subtitle "HI-TECH Software Omniscient Code Generator (Lite mode) build 49521"
   209  0000                     WPUB equ 0F61h ;# 
   210                           opt subtitle "HI-TECH Software Omniscient Code Generator (Lite mode) build 49521"
   211  0000                     IOCB equ 0F62h ;# 
   212                           opt subtitle "HI-TECH Software Omniscient Code Generator (Lite mode) build 49521"
   213  0000                     PSTR2CON equ 0F63h ;# 
   214                           opt subtitle "HI-TECH Software Omniscient Code Generator (Lite mode) build 49521"
   215  0000                     ECCP2AS equ 0F64h ;# 
   216                           opt subtitle "HI-TECH Software Omniscient Code Generator (Lite mode) build 49521"
   217  0000                     CCP2AS equ 0F64h ;# 
   218                           opt subtitle "HI-TECH Software Omniscient Code Generator (Lite mode) build 49521"
   219  0000                     PWM2CON equ 0F65h ;# 
   220                           opt subtitle "HI-TECH Software Omniscient Code Generator (Lite mode) build 49521"
   221  0000                     CCP2CON equ 0F66h ;# 
   222                           opt subtitle "HI-TECH Software Omniscient Code Generator (Lite mode) build 49521"
   223  0000                     CCPR2 equ 0F67h ;# 
   224                           opt subtitle "HI-TECH Software Omniscient Code Generator (Lite mode) build 49521"
   225  0000                     CCPR2L equ 0F67h ;# 
   226                           opt subtitle "HI-TECH Software Omniscient Code Generator (Lite mode) build 49521"
   227  0000                     CCPR2H equ 0F68h ;# 
   228                           opt subtitle "HI-TECH Software Omniscient Code Generator (Lite mode) build 49521"
   229  0000                     SSP2CON3 equ 0F69h ;# 
   230                           opt subtitle "HI-TECH Software Omniscient Code Generator (Lite mode) build 49521"
   231  0000                     SSP2MSK equ 0F6Ah ;# 
   232                           opt subtitle "HI-TECH Software Omniscient Code Generator (Lite mode) build 49521"
   233  0000                     SSP2CON2 equ 0F6Bh ;# 
   234                           opt subtitle "HI-TECH Software Omniscient Code Generator (Lite mode) build 49521"
   235  0000                     SSP2CON1 equ 0F6Ch ;# 
   236                           opt subtitle "HI-TECH Software Omniscient Code Generator (Lite mode) build 49521"
   237  0000                     SSP2STAT equ 0F6Dh ;# 
   238                           opt subtitle "HI-TECH Software Omniscient Code Generator (Lite mode) build 49521"
   239  0000                     SSP2ADD equ 0F6Eh ;# 
   240                           opt subtitle "HI-TECH Software Omniscient Code Generator (Lite mode) build 49521"
   241  0000                     SSP2BUF equ 0F6Fh ;# 
   242                           opt subtitle "HI-TECH Software Omniscient Code Generator (Lite mode) build 49521"
   243  0000                     BAUDCON2 equ 0F70h ;# 
   244                           opt subtitle "HI-TECH Software Omniscient Code Generator (Lite mode) build 49521"
   245  0000                     BAUD2CON equ 0F70h ;# 
   246                           opt subtitle "HI-TECH Software Omniscient Code Generator (Lite mode) build 49521"
   247  0000                     RCSTA2 equ 0F71h ;# 
   248                           opt subtitle "HI-TECH Software Omniscient Code Generator (Lite mode) build 49521"
   249  0000                     RC2STA equ 0F71h ;# 
   250                           opt subtitle "HI-TECH Software Omniscient Code Generator (Lite mode) build 49521"
   251  0000                     TXSTA2 equ 0F72h ;# 
   252                           opt subtitle "HI-TECH Software Omniscient Code Generator (Lite mode) build 49521"
   253  0000                     TX2STA equ 0F72h ;# 
   254                           opt subtitle "HI-TECH Software Omniscient Code Generator (Lite mode) build 49521"
   255  0000                     TXREG2 equ 0F73h ;# 
   256                           opt subtitle "HI-TECH Software Omniscient Code Generator (Lite mode) build 49521"
   257  0000                     TX2REG equ 0F73h ;# 
   258                           opt subtitle "HI-TECH Software Omniscient Code Generator (Lite mode) build 49521"
   259  0000                     RCREG2 equ 0F74h ;# 
   260                           opt subtitle "HI-TECH Software Omniscient Code Generator (Lite mode) build 49521"
   261  0000                     RC2REG equ 0F74h ;# 
   262                           opt subtitle "HI-TECH Software Omniscient Code Generator (Lite mode) build 49521"
   263  0000                     SPBRG2 equ 0F75h ;# 
   264                           opt subtitle "HI-TECH Software Omniscient Code Generator (Lite mode) build 49521"
   265  0000                     SP2BRG equ 0F75h ;# 
   266                           opt subtitle "HI-TECH Software Omniscient Code Generator (Lite mode) build 49521"
   267  0000                     SPBRGH2 equ 0F76h ;# 
   268                           opt subtitle "HI-TECH Software Omniscient Code Generator (Lite mode) build 49521"
   269  0000                     SP2BRGH equ 0F76h ;# 
   270                           opt subtitle "HI-TECH Software Omniscient Code Generator (Lite mode) build 49521"
   271  0000                     CM2CON1 equ 0F77h ;# 
   272                           opt subtitle "HI-TECH Software Omniscient Code Generator (Lite mode) build 49521"
   273  0000                     CM12CON equ 0F77h ;# 
   274                           opt subtitle "HI-TECH Software Omniscient Code Generator (Lite mode) build 49521"
   275  0000                     CM2CON0 equ 0F78h ;# 
   276                           opt subtitle "HI-TECH Software Omniscient Code Generator (Lite mode) build 49521"
   277  0000                     CM2CON equ 0F78h ;# 
   278                           opt subtitle "HI-TECH Software Omniscient Code Generator (Lite mode) build 49521"
   279  0000                     CM1CON0 equ 0F79h ;# 
   280                           opt subtitle "HI-TECH Software Omniscient Code Generator (Lite mode) build 49521"
   281  0000                     CM1CON equ 0F79h ;# 
   282                           opt subtitle "HI-TECH Software Omniscient Code Generator (Lite mode) build 49521"
   283  0000                     PIE4 equ 0F7Ah ;# 
   284                           opt subtitle "HI-TECH Software Omniscient Code Generator (Lite mode) build 49521"
   285  0000                     PIR4 equ 0F7Bh ;# 
   286                           opt subtitle "HI-TECH Software Omniscient Code Generator (Lite mode) build 49521"
   287  0000                     IPR4 equ 0F7Ch ;# 
   288                           opt subtitle "HI-TECH Software Omniscient Code Generator (Lite mode) build 49521"
   289  0000                     PIE5 equ 0F7Dh ;# 
   290                           opt subtitle "HI-TECH Software Omniscient Code Generator (Lite mode) build 49521"
   291  0000                     PIR5 equ 0F7Eh ;# 
   292                           opt subtitle "HI-TECH Software Omniscient Code Generator (Lite mode) build 49521"
   293  0000                     IPR5 equ 0F7Fh ;# 
   294                           opt subtitle "HI-TECH Software Omniscient Code Generator (Lite mode) build 49521"
   295  0000                     PORTA equ 0F80h ;# 
   296                           opt subtitle "HI-TECH Software Omniscient Code Generator (Lite mode) build 49521"
   297  0000                     PORTB equ 0F81h ;# 
   298                           opt subtitle "HI-TECH Software Omniscient Code Generator (Lite mode) build 49521"
   299  0000                     PORTC equ 0F82h ;# 
   300                           opt subtitle "HI-TECH Software Omniscient Code Generator (Lite mode) build 49521"
   301  0000                     PORTE equ 0F84h ;# 
   302                           opt subtitle "HI-TECH Software Omniscient Code Generator (Lite mode) build 49521"
   303  0000                     LATA equ 0F89h ;# 
   304                           opt subtitle "HI-TECH Software Omniscient Code Generator (Lite mode) build 49521"
   305  0000                     LATB equ 0F8Ah ;# 
   306                           opt subtitle "HI-TECH Software Omniscient Code Generator (Lite mode) build 49521"
   307  0000                     LATC equ 0F8Bh ;# 
   308                           opt subtitle "HI-TECH Software Omniscient Code Generator (Lite mode) build 49521"
   309  0000                     TRISA equ 0F92h ;# 
   310                           opt subtitle "HI-TECH Software Omniscient Code Generator (Lite mode) build 49521"
   311  0000                     DDRA equ 0F92h ;# 
   312                           opt subtitle "HI-TECH Software Omniscient Code Generator (Lite mode) build 49521"
   313  0000                     TRISB equ 0F93h ;# 
   314                           opt subtitle "HI-TECH Software Omniscient Code Generator (Lite mode) build 49521"
   315  0000                     DDRB equ 0F93h ;# 
   316                           opt subtitle "HI-TECH Software Omniscient Code Generator (Lite mode) build 49521"
   317  0000                     TRISC equ 0F94h ;# 
   318                           opt subtitle "HI-TECH Software Omniscient Code Generator (Lite mode) build 49521"
   319  0000                     DDRC equ 0F94h ;# 
   320                           opt subtitle "HI-TECH Software Omniscient Code Generator (Lite mode) build 49521"
   321  0000                     TRISE equ 0F96h ;# 
   322                           opt subtitle "HI-TECH Software Omniscient Code Generator (Lite mode) build 49521"
   323  0000                     OSCTUNE equ 0F9Bh ;# 
   324                           opt subtitle "HI-TECH Software Omniscient Code Generator (Lite mode) build 49521"
   325  0000                     HLVDCON equ 0F9Ch ;# 
   326                           opt subtitle "HI-TECH Software Omniscient Code Generator (Lite mode) build 49521"
   327  0000                     LVDCON equ 0F9Ch ;# 
   328                           opt subtitle "HI-TECH Software Omniscient Code Generator (Lite mode) build 49521"
   329  0000                     PIE1 equ 0F9Dh ;# 
   330                           opt subtitle "HI-TECH Software Omniscient Code Generator (Lite mode) build 49521"
   331  0000                     PIR1 equ 0F9Eh ;# 
   332                           opt subtitle "HI-TECH Software Omniscient Code Generator (Lite mode) build 49521"
   333  0000                     IPR1 equ 0F9Fh ;# 
   334                           opt subtitle "HI-TECH Software Omniscient Code Generator (Lite mode) build 49521"
   335  0000                     PIE2 equ 0FA0h ;# 
   336                           opt subtitle "HI-TECH Software Omniscient Code Generator (Lite mode) build 49521"
   337  0000                     PIR2 equ 0FA1h ;# 
   338                           opt subtitle "HI-TECH Software Omniscient Code Generator (Lite mode) build 49521"
   339  0000                     IPR2 equ 0FA2h ;# 
   340                           opt subtitle "HI-TECH Software Omniscient Code Generator (Lite mode) build 49521"
   341  0000                     PIE3 equ 0FA3h ;# 
   342                           opt subtitle "HI-TECH Software Omniscient Code Generator (Lite mode) build 49521"
   343  0000                     PIR3 equ 0FA4h ;# 
   344                           opt subtitle "HI-TECH Software Omniscient Code Generator (Lite mode) build 49521"
   345  0000                     IPR3 equ 0FA5h ;# 
   346                           opt subtitle "HI-TECH Software Omniscient Code Generator (Lite mode) build 49521"
   347  0000                     EECON1 equ 0FA6h ;# 
   348                           opt subtitle "HI-TECH Software Omniscient Code Generator (Lite mode) build 49521"
   349  0000                     EECON2 equ 0FA7h ;# 
   350                           opt subtitle "HI-TECH Software Omniscient Code Generator (Lite mode) build 49521"
   351  0000                     EEDATA equ 0FA8h ;# 
   352                           opt subtitle "HI-TECH Software Omniscient Code Generator (Lite mode) build 49521"
   353  0000                     EEADR equ 0FA9h ;# 
   354                           opt subtitle "HI-TECH Software Omniscient Code Generator (Lite mode) build 49521"
   355  0000                     EEADRH equ 0FAAh ;# 
   356                           opt subtitle "HI-TECH Software Omniscient Code Generator (Lite mode) build 49521"
   357  0000                     RCSTA1 equ 0FABh ;# 
   358                           opt subtitle "HI-TECH Software Omniscient Code Generator (Lite mode) build 49521"
   359  0000                     RCSTA equ 0FABh ;# 
   360                           opt subtitle "HI-TECH Software Omniscient Code Generator (Lite mode) build 49521"
   361  0000                     RC1STA equ 0FABh ;# 
   362                           opt subtitle "HI-TECH Software Omniscient Code Generator (Lite mode) build 49521"
   363  0000                     TXSTA1 equ 0FACh ;# 
   364                           opt subtitle "HI-TECH Software Omniscient Code Generator (Lite mode) build 49521"
   365  0000                     TXSTA equ 0FACh ;# 
   366                           opt subtitle "HI-TECH Software Omniscient Code Generator (Lite mode) build 49521"
   367  0000                     TX1STA equ 0FACh ;# 
   368                           opt subtitle "HI-TECH Software Omniscient Code Generator (Lite mode) build 49521"
   369  0000                     TXREG1 equ 0FADh ;# 
   370                           opt subtitle "HI-TECH Software Omniscient Code Generator (Lite mode) build 49521"
   371  0000                     TXREG equ 0FADh ;# 
   372                           opt subtitle "HI-TECH Software Omniscient Code Generator (Lite mode) build 49521"
   373  0000                     TX1REG equ 0FADh ;# 
   374                           opt subtitle "HI-TECH Software Omniscient Code Generator (Lite mode) build 49521"
   375  0000                     RCREG1 equ 0FAEh ;# 
   376                           opt subtitle "HI-TECH Software Omniscient Code Generator (Lite mode) build 49521"
   377  0000                     RCREG equ 0FAEh ;# 
   378                           opt subtitle "HI-TECH Software Omniscient Code Generator (Lite mode) build 49521"
   379  0000                     RC1REG equ 0FAEh ;# 
   380                           opt subtitle "HI-TECH Software Omniscient Code Generator (Lite mode) build 49521"
   381  0000                     SPBRG1 equ 0FAFh ;# 
   382                           opt subtitle "HI-TECH Software Omniscient Code Generator (Lite mode) build 49521"
   383  0000                     SPBRG equ 0FAFh ;# 
   384                           opt subtitle "HI-TECH Software Omniscient Code Generator (Lite mode) build 49521"
   385  0000                     SP1BRG equ 0FAFh ;# 
   386                           opt subtitle "HI-TECH Software Omniscient Code Generator (Lite mode) build 49521"
   387  0000                     SPBRGH1 equ 0FB0h ;# 
   388                           opt subtitle "HI-TECH Software Omniscient Code Generator (Lite mode) build 49521"
   389  0000                     SPBRGH equ 0FB0h ;# 
   390                           opt subtitle "HI-TECH Software Omniscient Code Generator (Lite mode) build 49521"
   391  0000                     SP1BRGH equ 0FB0h ;# 
   392                           opt subtitle "HI-TECH Software Omniscient Code Generator (Lite mode) build 49521"
   393  0000                     T3CON equ 0FB1h ;# 
   394                           opt subtitle "HI-TECH Software Omniscient Code Generator (Lite mode) build 49521"
   395  0000                     TMR3 equ 0FB2h ;# 
   396                           opt subtitle "HI-TECH Software Omniscient Code Generator (Lite mode) build 49521"
   397  0000                     TMR3L equ 0FB2h ;# 
   398                           opt subtitle "HI-TECH Software Omniscient Code Generator (Lite mode) build 49521"
   399  0000                     TMR3H equ 0FB3h ;# 
   400                           opt subtitle "HI-TECH Software Omniscient Code Generator (Lite mode) build 49521"
   401  0000                     T3GCON equ 0FB4h ;# 
   402                           opt subtitle "HI-TECH Software Omniscient Code Generator (Lite mode) build 49521"
   403  0000                     ECCP1AS equ 0FB6h ;# 
   404                           opt subtitle "HI-TECH Software Omniscient Code Generator (Lite mode) build 49521"
   405  0000                     ECCPAS equ 0FB6h ;# 
   406                           opt subtitle "HI-TECH Software Omniscient Code Generator (Lite mode) build 49521"
   407  0000                     PWM1CON equ 0FB7h ;# 
   408                           opt subtitle "HI-TECH Software Omniscient Code Generator (Lite mode) build 49521"
   409  0000                     PWMCON equ 0FB7h ;# 
   410                           opt subtitle "HI-TECH Software Omniscient Code Generator (Lite mode) build 49521"
   411  0000                     BAUDCON1 equ 0FB8h ;# 
   412                           opt subtitle "HI-TECH Software Omniscient Code Generator (Lite mode) build 49521"
   413  0000                     BAUDCON equ 0FB8h ;# 
   414                           opt subtitle "HI-TECH Software Omniscient Code Generator (Lite mode) build 49521"
   415  0000                     BAUDCTL equ 0FB8h ;# 
   416                           opt subtitle "HI-TECH Software Omniscient Code Generator (Lite mode) build 49521"
   417  0000                     BAUD1CON equ 0FB8h ;# 
   418                           opt subtitle "HI-TECH Software Omniscient Code Generator (Lite mode) build 49521"
   419  0000                     PSTR1CON equ 0FB9h ;# 
   420                           opt subtitle "HI-TECH Software Omniscient Code Generator (Lite mode) build 49521"
   421  0000                     PSTRCON equ 0FB9h ;# 
   422                           opt subtitle "HI-TECH Software Omniscient Code Generator (Lite mode) build 49521"
   423  0000                     T2CON equ 0FBAh ;# 
   424                           opt subtitle "HI-TECH Software Omniscient Code Generator (Lite mode) build 49521"
   425  0000                     PR2 equ 0FBBh ;# 
   426                           opt subtitle "HI-TECH Software Omniscient Code Generator (Lite mode) build 49521"
   427  0000                     TMR2 equ 0FBCh ;# 
   428                           opt subtitle "HI-TECH Software Omniscient Code Generator (Lite mode) build 49521"
   429  0000                     CCP1CON equ 0FBDh ;# 
   430                           opt subtitle "HI-TECH Software Omniscient Code Generator (Lite mode) build 49521"
   431  0000                     CCPR1 equ 0FBEh ;# 
   432                           opt subtitle "HI-TECH Software Omniscient Code Generator (Lite mode) build 49521"
   433  0000                     CCPR1L equ 0FBEh ;# 
   434                           opt subtitle "HI-TECH Software Omniscient Code Generator (Lite mode) build 49521"
   435  0000                     CCPR1H equ 0FBFh ;# 
   436                           opt subtitle "HI-TECH Software Omniscient Code Generator (Lite mode) build 49521"
   437  0000                     ADCON2 equ 0FC0h ;# 
   438                           opt subtitle "HI-TECH Software Omniscient Code Generator (Lite mode) build 49521"
   439  0000                     ADCON1 equ 0FC1h ;# 
   440                           opt subtitle "HI-TECH Software Omniscient Code Generator (Lite mode) build 49521"
   441  0000                     ADCON0 equ 0FC2h ;# 
   442                           opt subtitle "HI-TECH Software Omniscient Code Generator (Lite mode) build 49521"
   443  0000                     ADRES equ 0FC3h ;# 
   444                           opt subtitle "HI-TECH Software Omniscient Code Generator (Lite mode) build 49521"
   445  0000                     ADRESL equ 0FC3h ;# 
   446                           opt subtitle "HI-TECH Software Omniscient Code Generator (Lite mode) build 49521"
   447  0000                     ADRESH equ 0FC4h ;# 
   448                           opt subtitle "HI-TECH Software Omniscient Code Generator (Lite mode) build 49521"
   449  0000                     SSP1CON2 equ 0FC5h ;# 
   450                           opt subtitle "HI-TECH Software Omniscient Code Generator (Lite mode) build 49521"
   451  0000                     SSPCON2 equ 0FC5h ;# 
   452                           opt subtitle "HI-TECH Software Omniscient Code Generator (Lite mode) build 49521"
   453  0000                     SSP1CON1 equ 0FC6h ;# 
   454                           opt subtitle "HI-TECH Software Omniscient Code Generator (Lite mode) build 49521"
   455  0000                     SSPCON1 equ 0FC6h ;# 
   456                           opt subtitle "HI-TECH Software Omniscient Code Generator (Lite mode) build 49521"
   457  0000                     SSP1STAT equ 0FC7h ;# 
   458                           opt subtitle "HI-TECH Software Omniscient Code Generator (Lite mode) build 49521"
   459  0000                     SSPSTAT equ 0FC7h ;# 
   460                           opt subtitle "HI-TECH Software Omniscient Code Generator (Lite mode) build 49521"
   461  0000                     SSP1ADD equ 0FC8h ;# 
   462                           opt subtitle "HI-TECH Software Omniscient Code Generator (Lite mode) build 49521"
   463  0000                     SSPADD equ 0FC8h ;# 
   464                           opt subtitle "HI-TECH Software Omniscient Code Generator (Lite mode) build 49521"
   465  0000                     SSP1BUF equ 0FC9h ;# 
   466                           opt subtitle "HI-TECH Software Omniscient Code Generator (Lite mode) build 49521"
   467  0000                     SSPBUF equ 0FC9h ;# 
   468                           opt subtitle "HI-TECH Software Omniscient Code Generator (Lite mode) build 49521"
   469  0000                     SSP1MSK equ 0FCAh ;# 
   470                           opt subtitle "HI-TECH Software Omniscient Code Generator (Lite mode) build 49521"
   471  0000                     SSPMSK equ 0FCAh ;# 
   472                           opt subtitle "HI-TECH Software Omniscient Code Generator (Lite mode) build 49521"
   473  0000                     SSP1CON3 equ 0FCBh ;# 
   474                           opt subtitle "HI-TECH Software Omniscient Code Generator (Lite mode) build 49521"
   475  0000                     SSPCON3 equ 0FCBh ;# 
   476                           opt subtitle "HI-TECH Software Omniscient Code Generator (Lite mode) build 49521"
   477  0000                     T1GCON equ 0FCCh ;# 
   478                           opt subtitle "HI-TECH Software Omniscient Code Generator (Lite mode) build 49521"
   479  0000                     T1CON equ 0FCDh ;# 
   480                           opt subtitle "HI-TECH Software Omniscient Code Generator (Lite mode) build 49521"
   481  0000                     TMR1 equ 0FCEh ;# 
   482                           opt subtitle "HI-TECH Software Omniscient Code Generator (Lite mode) build 49521"
   483  0000                     TMR1L equ 0FCEh ;# 
   484                           opt subtitle "HI-TECH Software Omniscient Code Generator (Lite mode) build 49521"
   485  0000                     TMR1H equ 0FCFh ;# 
   486                           opt subtitle "HI-TECH Software Omniscient Code Generator (Lite mode) build 49521"
   487  0000                     RCON equ 0FD0h ;# 
   488                           opt subtitle "HI-TECH Software Omniscient Code Generator (Lite mode) build 49521"
   489  0000                     WDTCON equ 0FD1h ;# 
   490                           opt subtitle "HI-TECH Software Omniscient Code Generator (Lite mode) build 49521"
   491  0000                     OSCCON2 equ 0FD2h ;# 
   492                           opt subtitle "HI-TECH Software Omniscient Code Generator (Lite mode) build 49521"
   493  0000                     OSCCON equ 0FD3h ;# 
   494                           opt subtitle "HI-TECH Software Omniscient Code Generator (Lite mode) build 49521"
   495  0000                     T0CON equ 0FD5h ;# 
   496                           opt subtitle "HI-TECH Software Omniscient Code Generator (Lite mode) build 49521"
   497  0000                     TMR0 equ 0FD6h ;# 
   498                           opt subtitle "HI-TECH Software Omniscient Code Generator (Lite mode) build 49521"
   499  0000                     TMR0L equ 0FD6h ;# 
   500                           opt subtitle "HI-TECH Software Omniscient Code Generator (Lite mode) build 49521"
   501  0000                     TMR0H equ 0FD7h ;# 
   502                           opt subtitle "HI-TECH Software Omniscient Code Generator (Lite mode) build 49521"
   503  0000                     STATUS equ 0FD8h ;# 
   504                           opt subtitle "HI-TECH Software Omniscient Code Generator (Lite mode) build 49521"
   505  0000                     FSR2 equ 0FD9h ;# 
   506                           opt subtitle "HI-TECH Software Omniscient Code Generator (Lite mode) build 49521"
   507  0000                     FSR2L equ 0FD9h ;# 
   508                           opt subtitle "HI-TECH Software Omniscient Code Generator (Lite mode) build 49521"
   509  0000                     FSR2H equ 0FDAh ;# 
   510                           opt subtitle "HI-TECH Software Omniscient Code Generator (Lite mode) build 49521"
   511  0000                     PLUSW2 equ 0FDBh ;# 
   512                           opt subtitle "HI-TECH Software Omniscient Code Generator (Lite mode) build 49521"
   513  0000                     PREINC2 equ 0FDCh ;# 
   514                           opt subtitle "HI-TECH Software Omniscient Code Generator (Lite mode) build 49521"
   515  0000                     POSTDEC2 equ 0FDDh ;# 
   516                           opt subtitle "HI-TECH Software Omniscient Code Generator (Lite mode) build 49521"
   517  0000                     POSTINC2 equ 0FDEh ;# 
   518                           opt subtitle "HI-TECH Software Omniscient Code Generator (Lite mode) build 49521"
   519  0000                     INDF2 equ 0FDFh ;# 
   520                           opt subtitle "HI-TECH Software Omniscient Code Generator (Lite mode) build 49521"
   521  0000                     BSR equ 0FE0h ;# 
   522                           opt subtitle "HI-TECH Software Omniscient Code Generator (Lite mode) build 49521"
   523  0000                     FSR1 equ 0FE1h ;# 
   524                           opt subtitle "HI-TECH Software Omniscient Code Generator (Lite mode) build 49521"
   525  0000                     FSR1L equ 0FE1h ;# 
   526                           opt subtitle "HI-TECH Software Omniscient Code Generator (Lite mode) build 49521"
   527  0000                     FSR1H equ 0FE2h ;# 
   528                           opt subtitle "HI-TECH Software Omniscient Code Generator (Lite mode) build 49521"
   529  0000                     PLUSW1 equ 0FE3h ;# 
   530                           opt subtitle "HI-TECH Software Omniscient Code Generator (Lite mode) build 49521"
   531  0000                     PREINC1 equ 0FE4h ;# 
   532                           opt subtitle "HI-TECH Software Omniscient Code Generator (Lite mode) build 49521"
   533  0000                     POSTDEC1 equ 0FE5h ;# 
   534                           opt subtitle "HI-TECH Software Omniscient Code Generator (Lite mode) build 49521"
   535  0000                     POSTINC1 equ 0FE6h ;# 
   536                           opt subtitle "HI-TECH Software Omniscient Code Generator (Lite mode) build 49521"
   537  0000                     INDF1 equ 0FE7h ;# 
   538                           opt subtitle "HI-TECH Software Omniscient Code Generator (Lite mode) build 49521"
   539  0000                     WREG equ 0FE8h ;# 
   540                           opt subtitle "HI-TECH Software Omniscient Code Generator (Lite mode) build 49521"
   541  0000                     FSR0 equ 0FE9h ;# 
   542                           opt subtitle "HI-TECH Software Omniscient Code Generator (Lite mode) build 49521"
   543  0000                     FSR0L equ 0FE9h ;# 
   544                           opt subtitle "HI-TECH Software Omniscient Code Generator (Lite mode) build 49521"
   545  0000                     FSR0H equ 0FEAh ;# 
   546                           opt subtitle "HI-TECH Software Omniscient Code Generator (Lite mode) build 49521"
   547  0000                     PLUSW0 equ 0FEBh ;# 
   548                           opt subtitle "HI-TECH Software Omniscient Code Generator (Lite mode) build 49521"
   549  0000                     PREINC0 equ 0FECh ;# 
   550                           opt subtitle "HI-TECH Software Omniscient Code Generator (Lite mode) build 49521"
   551  0000                     POSTDEC0 equ 0FEDh ;# 
   552                           opt subtitle "HI-TECH Software Omniscient Code Generator (Lite mode) build 49521"
   553  0000                     POSTINC0 equ 0FEEh ;# 
   554                           opt subtitle "HI-TECH Software Omniscient Code Generator (Lite mode) build 49521"
   555  0000                     INDF0 equ 0FEFh ;# 
   556                           opt subtitle "HI-TECH Software Omniscient Code Generator (Lite mode) build 49521"
   557  0000                     INTCON3 equ 0FF0h ;# 
   558                           opt subtitle "HI-TECH Software Omniscient Code Generator (Lite mode) build 49521"
   559  0000                     INTCON2 equ 0FF1h ;# 
   560                           opt subtitle "HI-TECH Software Omniscient Code Generator (Lite mode) build 49521"
   561  0000                     INTCON equ 0FF2h ;# 
   562                           opt subtitle "HI-TECH Software Omniscient Code Generator (Lite mode) build 49521"
   563  0000                     PROD equ 0FF3h ;# 
   564                           opt subtitle "HI-TECH Software Omniscient Code Generator (Lite mode) build 49521"
   565  0000                     PRODL equ 0FF3h ;# 
   566                           opt subtitle "HI-TECH Software Omniscient Code Generator (Lite mode) build 49521"
   567  0000                     PRODH equ 0FF4h ;# 
   568                           opt subtitle "HI-TECH Software Omniscient Code Generator (Lite mode) build 49521"
   569  0000                     TABLAT equ 0FF5h ;# 
   570                           opt subtitle "HI-TECH Software Omniscient Code Generator (Lite mode) build 49521"
   571  0000                     TBLPTR equ 0FF6h ;# 
   572                           opt subtitle "HI-TECH Software Omniscient Code Generator (Lite mode) build 49521"
   573  0000                     TBLPTRL equ 0FF6h ;# 
   574                           opt subtitle "HI-TECH Software Omniscient Code Generator (Lite mode) build 49521"
   575  0000                     TBLPTRH equ 0FF7h ;# 
   576                           opt subtitle "HI-TECH Software Omniscient Code Generator (Lite mode) build 49521"
   577  0000                     TBLPTRU equ 0FF8h ;# 
   578                           opt subtitle "HI-TECH Software Omniscient Code Generator (Lite mode) build 49521"
   579  0000                     PCLAT equ 0FF9h ;# 
   580                           opt subtitle "HI-TECH Software Omniscient Code Generator (Lite mode) build 49521"
   581  0000                     PC equ 0FF9h ;# 
   582                           opt subtitle "HI-TECH Software Omniscient Code Generator (Lite mode) build 49521"
   583  0000                     PCL equ 0FF9h ;# 
   584                           opt subtitle "HI-TECH Software Omniscient Code Generator (Lite mode) build 49521"
   585  0000                     PCLATH equ 0FFAh ;# 
   586                           opt subtitle "HI-TECH Software Omniscient Code Generator (Lite mode) build 49521"
   587  0000                     PCLATU equ 0FFBh ;# 
   588                           opt subtitle "HI-TECH Software Omniscient Code Generator (Lite mode) build 49521"
   589  0000                     STKPTR equ 0FFCh ;# 
   590                           opt subtitle "HI-TECH Software Omniscient Code Generator (Lite mode) build 49521"
   591  0000                     TOS equ 0FFDh ;# 
   592                           opt subtitle "HI-TECH Software Omniscient Code Generator (Lite mode) build 49521"
   593  0000                     TOSL equ 0FFDh ;# 
   594                           opt subtitle "HI-TECH Software Omniscient Code Generator (Lite mode) build 49521"
   595  0000                     TOSH equ 0FFEh ;# 
   596                           opt subtitle "HI-TECH Software Omniscient Code Generator (Lite mode) build 49521"
   597  0000                     TOSU equ 0FFFh ;# 
   598                           opt subtitle "HI-TECH Software Omniscient Code Generator (Lite mode) build 49521"
   599  0000                     ANSELA equ 0F38h ;# 
   600                           opt subtitle "HI-TECH Software Omniscient Code Generator (Lite mode) build 49521"
   601  0000                     ANSELB equ 0F39h ;# 
   602                           opt subtitle "HI-TECH Software Omniscient Code Generator (Lite mode) build 49521"
   603  0000                     ANSELC equ 0F3Ah ;# 
   604                           opt subtitle "HI-TECH Software Omniscient Code Generator (Lite mode) build 49521"
   605  0000                     PMD2 equ 0F3Dh ;# 
   606                           opt subtitle "HI-TECH Software Omniscient Code Generator (Lite mode) build 49521"
   607  0000                     PMD1 equ 0F3Eh ;# 
   608                           opt subtitle "HI-TECH Software Omniscient Code Generator (Lite mode) build 49521"
   609  0000                     PMD0 equ 0F3Fh ;# 
   610                           opt subtitle "HI-TECH Software Omniscient Code Generator (Lite mode) build 49521"
   611  0000                     VREFCON2 equ 0F40h ;# 
   612                           opt subtitle "HI-TECH Software Omniscient Code Generator (Lite mode) build 49521"
   613  0000                     DACCON1 equ 0F40h ;# 
   614                           opt subtitle "HI-TECH Software Omniscient Code Generator (Lite mode) build 49521"
   615  0000                     VREFCON1 equ 0F41h ;# 
   616                           opt subtitle "HI-TECH Software Omniscient Code Generator (Lite mode) build 49521"
   617  0000                     DACCON0 equ 0F41h ;# 
   618                           opt subtitle "HI-TECH Software Omniscient Code Generator (Lite mode) build 49521"
   619  0000                     VREFCON0 equ 0F42h ;# 
   620                           opt subtitle "HI-TECH Software Omniscient Code Generator (Lite mode) build 49521"
   621  0000                     FVRCON equ 0F42h ;# 
   622                           opt subtitle "HI-TECH Software Omniscient Code Generator (Lite mode) build 49521"
   623  0000                     CTMUICON equ 0F43h ;# 
   624                           opt subtitle "HI-TECH Software Omniscient Code Generator (Lite mode) build 49521"
   625  0000                     CTMUICONH equ 0F43h ;# 
   626                           opt subtitle "HI-TECH Software Omniscient Code Generator (Lite mode) build 49521"
   627  0000                     CTMUCONL equ 0F44h ;# 
   628                           opt subtitle "HI-TECH Software Omniscient Code Generator (Lite mode) build 49521"
   629  0000                     CTMUCON1 equ 0F44h ;# 
   630                           opt subtitle "HI-TECH Software Omniscient Code Generator (Lite mode) build 49521"
   631  0000                     CTMUCONH equ 0F45h ;# 
   632                           opt subtitle "HI-TECH Software Omniscient Code Generator (Lite mode) build 49521"
   633  0000                     CTMUCON0 equ 0F45h ;# 
   634                           opt subtitle "HI-TECH Software Omniscient Code Generator (Lite mode) build 49521"
   635  0000                     SRCON1 equ 0F46h ;# 
   636                           opt subtitle "HI-TECH Software Omniscient Code Generator (Lite mode) build 49521"
   637  0000                     SRCON0 equ 0F47h ;# 
   638                           opt subtitle "HI-TECH Software Omniscient Code Generator (Lite mode) build 49521"
   639  0000                     CCPTMRS1 equ 0F48h ;# 
   640                           opt subtitle "HI-TECH Software Omniscient Code Generator (Lite mode) build 49521"
   641  0000                     CCPTMRS0 equ 0F49h ;# 
   642                           opt subtitle "HI-TECH Software Omniscient Code Generator (Lite mode) build 49521"
   643  0000                     T6CON equ 0F4Ah ;# 
   644                           opt subtitle "HI-TECH Software Omniscient Code Generator (Lite mode) build 49521"
   645  0000                     PR6 equ 0F4Bh ;# 
   646                           opt subtitle "HI-TECH Software Omniscient Code Generator (Lite mode) build 49521"
   647  0000                     TMR6 equ 0F4Ch ;# 
   648                           opt subtitle "HI-TECH Software Omniscient Code Generator (Lite mode) build 49521"
   649  0000                     T5GCON equ 0F4Dh ;# 
   650                           opt subtitle "HI-TECH Software Omniscient Code Generator (Lite mode) build 49521"
   651  0000                     T5CON equ 0F4Eh ;# 
   652                           opt subtitle "HI-TECH Software Omniscient Code Generator (Lite mode) build 49521"
   653  0000                     TMR5 equ 0F4Fh ;# 
   654                           opt subtitle "HI-TECH Software Omniscient Code Generator (Lite mode) build 49521"
   655  0000                     TMR5L equ 0F4Fh ;# 
   656                           opt subtitle "HI-TECH Software Omniscient Code Generator (Lite mode) build 49521"
   657  0000                     TMR5H equ 0F50h ;# 
   658                           opt subtitle "HI-TECH Software Omniscient Code Generator (Lite mode) build 49521"
   659  0000                     T4CON equ 0F51h ;# 
   660                           opt subtitle "HI-TECH Software Omniscient Code Generator (Lite mode) build 49521"
   661  0000                     PR4 equ 0F52h ;# 
   662                           opt subtitle "HI-TECH Software Omniscient Code Generator (Lite mode) build 49521"
   663  0000                     TMR4 equ 0F53h ;# 
   664                           opt subtitle "HI-TECH Software Omniscient Code Generator (Lite mode) build 49521"
   665  0000                     CCP5CON equ 0F54h ;# 
   666                           opt subtitle "HI-TECH Software Omniscient Code Generator (Lite mode) build 49521"
   667  0000                     CCPR5 equ 0F55h ;# 
   668                           opt subtitle "HI-TECH Software Omniscient Code Generator (Lite mode) build 49521"
   669  0000                     CCPR5L equ 0F55h ;# 
   670                           opt subtitle "HI-TECH Software Omniscient Code Generator (Lite mode) build 49521"
   671  0000                     CCPR5H equ 0F56h ;# 
   672                           opt subtitle "HI-TECH Software Omniscient Code Generator (Lite mode) build 49521"
   673  0000                     CCP4CON equ 0F57h ;# 
   674                           opt subtitle "HI-TECH Software Omniscient Code Generator (Lite mode) build 49521"
   675  0000                     CCPR4 equ 0F58h ;# 
   676                           opt subtitle "HI-TECH Software Omniscient Code Generator (Lite mode) build 49521"
   677  0000                     CCPR4L equ 0F58h ;# 
   678                           opt subtitle "HI-TECH Software Omniscient Code Generator (Lite mode) build 49521"
   679  0000                     CCPR4H equ 0F59h ;# 
   680                           opt subtitle "HI-TECH Software Omniscient Code Generator (Lite mode) build 49521"
   681  0000                     PSTR3CON equ 0F5Ah ;# 
   682                           opt subtitle "HI-TECH Software Omniscient Code Generator (Lite mode) build 49521"
   683  0000                     ECCP3AS equ 0F5Bh ;# 
   684                           opt subtitle "HI-TECH Software Omniscient Code Generator (Lite mode) build 49521"
   685  0000                     CCP3AS equ 0F5Bh ;# 
   686                           opt subtitle "HI-TECH Software Omniscient Code Generator (Lite mode) build 49521"
   687  0000                     PWM3CON equ 0F5Ch ;# 
   688                           opt subtitle "HI-TECH Software Omniscient Code Generator (Lite mode) build 49521"
   689  0000                     CCP3CON equ 0F5Dh ;# 
   690                           opt subtitle "HI-TECH Software Omniscient Code Generator (Lite mode) build 49521"
   691  0000                     CCPR3 equ 0F5Eh ;# 
   692                           opt subtitle "HI-TECH Software Omniscient Code Generator (Lite mode) build 49521"
   693  0000                     CCPR3L equ 0F5Eh ;# 
   694                           opt subtitle "HI-TECH Software Omniscient Code Generator (Lite mode) build 49521"
   695  0000                     CCPR3H equ 0F5Fh ;# 
   696                           opt subtitle "HI-TECH Software Omniscient Code Generator (Lite mode) build 49521"
   697  0000                     SLRCON equ 0F60h ;# 
   698                           opt subtitle "HI-TECH Software Omniscient Code Generator (Lite mode) build 49521"
   699  0000                     WPUB equ 0F61h ;# 
   700                           opt subtitle "HI-TECH Software Omniscient Code Generator (Lite mode) build 49521"
   701  0000                     IOCB equ 0F62h ;# 
   702                           opt subtitle "HI-TECH Software Omniscient Code Generator (Lite mode) build 49521"
   703  0000                     PSTR2CON equ 0F63h ;# 
   704                           opt subtitle "HI-TECH Software Omniscient Code Generator (Lite mode) build 49521"
   705  0000                     ECCP2AS equ 0F64h ;# 
   706                           opt subtitle "HI-TECH Software Omniscient Code Generator (Lite mode) build 49521"
   707  0000                     CCP2AS equ 0F64h ;# 
   708                           opt subtitle "HI-TECH Software Omniscient Code Generator (Lite mode) build 49521"
   709  0000                     PWM2CON equ 0F65h ;# 
   710                           opt subtitle "HI-TECH Software Omniscient Code Generator (Lite mode) build 49521"
   711  0000                     CCP2CON equ 0F66h ;# 
   712                           opt subtitle "HI-TECH Software Omniscient Code Generator (Lite mode) build 49521"
   713  0000                     CCPR2 equ 0F67h ;# 
   714                           opt subtitle "HI-TECH Software Omniscient Code Generator (Lite mode) build 49521"
   715  0000                     CCPR2L equ 0F67h ;# 
   716                           opt subtitle "HI-TECH Software Omniscient Code Generator (Lite mode) build 49521"
   717  0000                     CCPR2H equ 0F68h ;# 
   718                           opt subtitle "HI-TECH Software Omniscient Code Generator (Lite mode) build 49521"
   719  0000                     SSP2CON3 equ 0F69h ;# 
   720                           opt subtitle "HI-TECH Software Omniscient Code Generator (Lite mode) build 49521"
   721  0000                     SSP2MSK equ 0F6Ah ;# 
   722                           opt subtitle "HI-TECH Software Omniscient Code Generator (Lite mode) build 49521"
   723  0000                     SSP2CON2 equ 0F6Bh ;# 
   724                           opt subtitle "HI-TECH Software Omniscient Code Generator (Lite mode) build 49521"
   725  0000                     SSP2CON1 equ 0F6Ch ;# 
   726                           opt subtitle "HI-TECH Software Omniscient Code Generator (Lite mode) build 49521"
   727  0000                     SSP2STAT equ 0F6Dh ;# 
   728                           opt subtitle "HI-TECH Software Omniscient Code Generator (Lite mode) build 49521"
   729  0000                     SSP2ADD equ 0F6Eh ;# 
   730                           opt subtitle "HI-TECH Software Omniscient Code Generator (Lite mode) build 49521"
   731  0000                     SSP2BUF equ 0F6Fh ;# 
   732                           opt subtitle "HI-TECH Software Omniscient Code Generator (Lite mode) build 49521"
   733  0000                     BAUDCON2 equ 0F70h ;# 
   734                           opt subtitle "HI-TECH Software Omniscient Code Generator (Lite mode) build 49521"
   735  0000                     BAUD2CON equ 0F70h ;# 
   736                           opt subtitle "HI-TECH Software Omniscient Code Generator (Lite mode) build 49521"
   737  0000                     RCSTA2 equ 0F71h ;# 
   738                           opt subtitle "HI-TECH Software Omniscient Code Generator (Lite mode) build 49521"
   739  0000                     RC2STA equ 0F71h ;# 
   740                           opt subtitle "HI-TECH Software Omniscient Code Generator (Lite mode) build 49521"
   741  0000                     TXSTA2 equ 0F72h ;# 
   742                           opt subtitle "HI-TECH Software Omniscient Code Generator (Lite mode) build 49521"
   743  0000                     TX2STA equ 0F72h ;# 
   744                           opt subtitle "HI-TECH Software Omniscient Code Generator (Lite mode) build 49521"
   745  0000                     TXREG2 equ 0F73h ;# 
   746                           opt subtitle "HI-TECH Software Omniscient Code Generator (Lite mode) build 49521"
   747  0000                     TX2REG equ 0F73h ;# 
   748                           opt subtitle "HI-TECH Software Omniscient Code Generator (Lite mode) build 49521"
   749  0000                     RCREG2 equ 0F74h ;# 
   750                           opt subtitle "HI-TECH Software Omniscient Code Generator (Lite mode) build 49521"
   751  0000                     RC2REG equ 0F74h ;# 
   752                           opt subtitle "HI-TECH Software Omniscient Code Generator (Lite mode) build 49521"
   753  0000                     SPBRG2 equ 0F75h ;# 
   754                           opt subtitle "HI-TECH Software Omniscient Code Generator (Lite mode) build 49521"
   755  0000                     SP2BRG equ 0F75h ;# 
   756                           opt subtitle "HI-TECH Software Omniscient Code Generator (Lite mode) build 49521"
   757  0000                     SPBRGH2 equ 0F76h ;# 
   758                           opt subtitle "HI-TECH Software Omniscient Code Generator (Lite mode) build 49521"
   759  0000                     SP2BRGH equ 0F76h ;# 
   760                           opt subtitle "HI-TECH Software Omniscient Code Generator (Lite mode) build 49521"
   761  0000                     CM2CON1 equ 0F77h ;# 
   762                           opt subtitle "HI-TECH Software Omniscient Code Generator (Lite mode) build 49521"
   763  0000                     CM12CON equ 0F77h ;# 
   764                           opt subtitle "HI-TECH Software Omniscient Code Generator (Lite mode) build 49521"
   765  0000                     CM2CON0 equ 0F78h ;# 
   766                           opt subtitle "HI-TECH Software Omniscient Code Generator (Lite mode) build 49521"
   767  0000                     CM2CON equ 0F78h ;# 
   768                           opt subtitle "HI-TECH Software Omniscient Code Generator (Lite mode) build 49521"
   769  0000                     CM1CON0 equ 0F79h ;# 
   770                           opt subtitle "HI-TECH Software Omniscient Code Generator (Lite mode) build 49521"
   771  0000                     CM1CON equ 0F79h ;# 
   772                           opt subtitle "HI-TECH Software Omniscient Code Generator (Lite mode) build 49521"
   773  0000                     PIE4 equ 0F7Ah ;# 
   774                           opt subtitle "HI-TECH Software Omniscient Code Generator (Lite mode) build 49521"
   775  0000                     PIR4 equ 0F7Bh ;# 
   776                           opt subtitle "HI-TECH Software Omniscient Code Generator (Lite mode) build 49521"
   777  0000                     IPR4 equ 0F7Ch ;# 
   778                           opt subtitle "HI-TECH Software Omniscient Code Generator (Lite mode) build 49521"
   779  0000                     PIE5 equ 0F7Dh ;# 
   780                           opt subtitle "HI-TECH Software Omniscient Code Generator (Lite mode) build 49521"
   781  0000                     PIR5 equ 0F7Eh ;# 
   782                           opt subtitle "HI-TECH Software Omniscient Code Generator (Lite mode) build 49521"
   783  0000                     IPR5 equ 0F7Fh ;# 
   784                           opt subtitle "HI-TECH Software Omniscient Code Generator (Lite mode) build 49521"
   785  0000                     PORTA equ 0F80h ;# 
   786                           opt subtitle "HI-TECH Software Omniscient Code Generator (Lite mode) build 49521"
   787  0000                     PORTB equ 0F81h ;# 
   788                           opt subtitle "HI-TECH Software Omniscient Code Generator (Lite mode) build 49521"
   789  0000                     PORTC equ 0F82h ;# 
   790                           opt subtitle "HI-TECH Software Omniscient Code Generator (Lite mode) build 49521"
   791  0000                     PORTE equ 0F84h ;# 
   792                           opt subtitle "HI-TECH Software Omniscient Code Generator (Lite mode) build 49521"
   793  0000                     LATA equ 0F89h ;# 
   794                           opt subtitle "HI-TECH Software Omniscient Code Generator (Lite mode) build 49521"
   795  0000                     LATB equ 0F8Ah ;# 
   796                           opt subtitle "HI-TECH Software Omniscient Code Generator (Lite mode) build 49521"
   797  0000                     LATC equ 0F8Bh ;# 
   798                           opt subtitle "HI-TECH Software Omniscient Code Generator (Lite mode) build 49521"
   799  0000                     TRISA equ 0F92h ;# 
   800                           opt subtitle "HI-TECH Software Omniscient Code Generator (Lite mode) build 49521"
   801  0000                     DDRA equ 0F92h ;# 
   802                           opt subtitle "HI-TECH Software Omniscient Code Generator (Lite mode) build 49521"
   803  0000                     TRISB equ 0F93h ;# 
   804                           opt subtitle "HI-TECH Software Omniscient Code Generator (Lite mode) build 49521"
   805  0000                     DDRB equ 0F93h ;# 
   806                           opt subtitle "HI-TECH Software Omniscient Code Generator (Lite mode) build 49521"
   807  0000                     TRISC equ 0F94h ;# 
   808                           opt subtitle "HI-TECH Software Omniscient Code Generator (Lite mode) build 49521"
   809  0000                     DDRC equ 0F94h ;# 
   810                           opt subtitle "HI-TECH Software Omniscient Code Generator (Lite mode) build 49521"
   811  0000                     TRISE equ 0F96h ;# 
   812                           opt subtitle "HI-TECH Software Omniscient Code Generator (Lite mode) build 49521"
   813  0000                     OSCTUNE equ 0F9Bh ;# 
   814                           opt subtitle "HI-TECH Software Omniscient Code Generator (Lite mode) build 49521"
   815  0000                     HLVDCON equ 0F9Ch ;# 
   816                           opt subtitle "HI-TECH Software Omniscient Code Generator (Lite mode) build 49521"
   817  0000                     LVDCON equ 0F9Ch ;# 
   818                           opt subtitle "HI-TECH Software Omniscient Code Generator (Lite mode) build 49521"
   819  0000                     PIE1 equ 0F9Dh ;# 
   820                           opt subtitle "HI-TECH Software Omniscient Code Generator (Lite mode) build 49521"
   821  0000                     PIR1 equ 0F9Eh ;# 
   822                           opt subtitle "HI-TECH Software Omniscient Code Generator (Lite mode) build 49521"
   823  0000                     IPR1 equ 0F9Fh ;# 
   824                           opt subtitle "HI-TECH Software Omniscient Code Generator (Lite mode) build 49521"
   825  0000                     PIE2 equ 0FA0h ;# 
   826                           opt subtitle "HI-TECH Software Omniscient Code Generator (Lite mode) build 49521"
   827  0000                     PIR2 equ 0FA1h ;# 
   828                           opt subtitle "HI-TECH Software Omniscient Code Generator (Lite mode) build 49521"
   829  0000                     IPR2 equ 0FA2h ;# 
   830                           opt subtitle "HI-TECH Software Omniscient Code Generator (Lite mode) build 49521"
   831  0000                     PIE3 equ 0FA3h ;# 
   832                           opt subtitle "HI-TECH Software Omniscient Code Generator (Lite mode) build 49521"
   833  0000                     PIR3 equ 0FA4h ;# 
   834                           opt subtitle "HI-TECH Software Omniscient Code Generator (Lite mode) build 49521"
   835  0000                     IPR3 equ 0FA5h ;# 
   836                           opt subtitle "HI-TECH Software Omniscient Code Generator (Lite mode) build 49521"
   837  0000                     EECON1 equ 0FA6h ;# 
   838                           opt subtitle "HI-TECH Software Omniscient Code Generator (Lite mode) build 49521"
   839  0000                     EECON2 equ 0FA7h ;# 
   840                           opt subtitle "HI-TECH Software Omniscient Code Generator (Lite mode) build 49521"
   841  0000                     EEDATA equ 0FA8h ;# 
   842                           opt subtitle "HI-TECH Software Omniscient Code Generator (Lite mode) build 49521"
   843  0000                     EEADR equ 0FA9h ;# 
   844                           opt subtitle "HI-TECH Software Omniscient Code Generator (Lite mode) build 49521"
   845  0000                     EEADRH equ 0FAAh ;# 
   846                           opt subtitle "HI-TECH Software Omniscient Code Generator (Lite mode) build 49521"
   847  0000                     RCSTA1 equ 0FABh ;# 
   848                           opt subtitle "HI-TECH Software Omniscient Code Generator (Lite mode) build 49521"
   849  0000                     RCSTA equ 0FABh ;# 
   850                           opt subtitle "HI-TECH Software Omniscient Code Generator (Lite mode) build 49521"
   851  0000                     RC1STA equ 0FABh ;# 
   852                           opt subtitle "HI-TECH Software Omniscient Code Generator (Lite mode) build 49521"
   853  0000                     TXSTA1 equ 0FACh ;# 
   854                           opt subtitle "HI-TECH Software Omniscient Code Generator (Lite mode) build 49521"
   855  0000                     TXSTA equ 0FACh ;# 
   856                           opt subtitle "HI-TECH Software Omniscient Code Generator (Lite mode) build 49521"
   857  0000                     TX1STA equ 0FACh ;# 
   858                           opt subtitle "HI-TECH Software Omniscient Code Generator (Lite mode) build 49521"
   859  0000                     TXREG1 equ 0FADh ;# 
   860                           opt subtitle "HI-TECH Software Omniscient Code Generator (Lite mode) build 49521"
   861  0000                     TXREG equ 0FADh ;# 
   862                           opt subtitle "HI-TECH Software Omniscient Code Generator (Lite mode) build 49521"
   863  0000                     TX1REG equ 0FADh ;# 
   864                           opt subtitle "HI-TECH Software Omniscient Code Generator (Lite mode) build 49521"
   865  0000                     RCREG1 equ 0FAEh ;# 
   866                           opt subtitle "HI-TECH Software Omniscient Code Generator (Lite mode) build 49521"
   867  0000                     RCREG equ 0FAEh ;# 
   868                           opt subtitle "HI-TECH Software Omniscient Code Generator (Lite mode) build 49521"
   869  0000                     RC1REG equ 0FAEh ;# 
   870                           opt subtitle "HI-TECH Software Omniscient Code Generator (Lite mode) build 49521"
   871  0000                     SPBRG1 equ 0FAFh ;# 
   872                           opt subtitle "HI-TECH Software Omniscient Code Generator (Lite mode) build 49521"
   873  0000                     SPBRG equ 0FAFh ;# 
   874                           opt subtitle "HI-TECH Software Omniscient Code Generator (Lite mode) build 49521"
   875  0000                     SP1BRG equ 0FAFh ;# 
   876                           opt subtitle "HI-TECH Software Omniscient Code Generator (Lite mode) build 49521"
   877  0000                     SPBRGH1 equ 0FB0h ;# 
   878                           opt subtitle "HI-TECH Software Omniscient Code Generator (Lite mode) build 49521"
   879  0000                     SPBRGH equ 0FB0h ;# 
   880                           opt subtitle "HI-TECH Software Omniscient Code Generator (Lite mode) build 49521"
   881  0000                     SP1BRGH equ 0FB0h ;# 
   882                           opt subtitle "HI-TECH Software Omniscient Code Generator (Lite mode) build 49521"
   883  0000                     T3CON equ 0FB1h ;# 
   884                           opt subtitle "HI-TECH Software Omniscient Code Generator (Lite mode) build 49521"
   885  0000                     TMR3 equ 0FB2h ;# 
   886                           opt subtitle "HI-TECH Software Omniscient Code Generator (Lite mode) build 49521"
   887  0000                     TMR3L equ 0FB2h ;# 
   888                           opt subtitle "HI-TECH Software Omniscient Code Generator (Lite mode) build 49521"
   889  0000                     TMR3H equ 0FB3h ;# 
   890                           opt subtitle "HI-TECH Software Omniscient Code Generator (Lite mode) build 49521"
   891  0000                     T3GCON equ 0FB4h ;# 
   892                           opt subtitle "HI-TECH Software Omniscient Code Generator (Lite mode) build 49521"
   893  0000                     ECCP1AS equ 0FB6h ;# 
   894                           opt subtitle "HI-TECH Software Omniscient Code Generator (Lite mode) build 49521"
   895  0000                     ECCPAS equ 0FB6h ;# 
   896                           opt subtitle "HI-TECH Software Omniscient Code Generator (Lite mode) build 49521"
   897  0000                     PWM1CON equ 0FB7h ;# 
   898                           opt subtitle "HI-TECH Software Omniscient Code Generator (Lite mode) build 49521"
   899  0000                     PWMCON equ 0FB7h ;# 
   900                           opt subtitle "HI-TECH Software Omniscient Code Generator (Lite mode) build 49521"
   901  0000                     BAUDCON1 equ 0FB8h ;# 
   902                           opt subtitle "HI-TECH Software Omniscient Code Generator (Lite mode) build 49521"
   903  0000                     BAUDCON equ 0FB8h ;# 
   904                           opt subtitle "HI-TECH Software Omniscient Code Generator (Lite mode) build 49521"
   905  0000                     BAUDCTL equ 0FB8h ;# 
   906                           opt subtitle "HI-TECH Software Omniscient Code Generator (Lite mode) build 49521"
   907  0000                     BAUD1CON equ 0FB8h ;# 
   908                           opt subtitle "HI-TECH Software Omniscient Code Generator (Lite mode) build 49521"
   909  0000                     PSTR1CON equ 0FB9h ;# 
   910                           opt subtitle "HI-TECH Software Omniscient Code Generator (Lite mode) build 49521"
   911  0000                     PSTRCON equ 0FB9h ;# 
   912                           opt subtitle "HI-TECH Software Omniscient Code Generator (Lite mode) build 49521"
   913  0000                     T2CON equ 0FBAh ;# 
   914                           opt subtitle "HI-TECH Software Omniscient Code Generator (Lite mode) build 49521"
   915  0000                     PR2 equ 0FBBh ;# 
   916                           opt subtitle "HI-TECH Software Omniscient Code Generator (Lite mode) build 49521"
   917  0000                     TMR2 equ 0FBCh ;# 
   918                           opt subtitle "HI-TECH Software Omniscient Code Generator (Lite mode) build 49521"
   919  0000                     CCP1CON equ 0FBDh ;# 
   920                           opt subtitle "HI-TECH Software Omniscient Code Generator (Lite mode) build 49521"
   921  0000                     CCPR1 equ 0FBEh ;# 
   922                           opt subtitle "HI-TECH Software Omniscient Code Generator (Lite mode) build 49521"
   923  0000                     CCPR1L equ 0FBEh ;# 
   924                           opt subtitle "HI-TECH Software Omniscient Code Generator (Lite mode) build 49521"
   925  0000                     CCPR1H equ 0FBFh ;# 
   926                           opt subtitle "HI-TECH Software Omniscient Code Generator (Lite mode) build 49521"
   927  0000                     ADCON2 equ 0FC0h ;# 
   928                           opt subtitle "HI-TECH Software Omniscient Code Generator (Lite mode) build 49521"
   929  0000                     ADCON1 equ 0FC1h ;# 
   930                           opt subtitle "HI-TECH Software Omniscient Code Generator (Lite mode) build 49521"
   931  0000                     ADCON0 equ 0FC2h ;# 
   932                           opt subtitle "HI-TECH Software Omniscient Code Generator (Lite mode) build 49521"
   933  0000                     ADRES equ 0FC3h ;# 
   934                           opt subtitle "HI-TECH Software Omniscient Code Generator (Lite mode) build 49521"
   935  0000                     ADRESL equ 0FC3h ;# 
   936                           opt subtitle "HI-TECH Software Omniscient Code Generator (Lite mode) build 49521"
   937  0000                     ADRESH equ 0FC4h ;# 
   938                           opt subtitle "HI-TECH Software Omniscient Code Generator (Lite mode) build 49521"
   939  0000                     SSP1CON2 equ 0FC5h ;# 
   940                           opt subtitle "HI-TECH Software Omniscient Code Generator (Lite mode) build 49521"
   941  0000                     SSPCON2 equ 0FC5h ;# 
   942                           opt subtitle "HI-TECH Software Omniscient Code Generator (Lite mode) build 49521"
   943  0000                     SSP1CON1 equ 0FC6h ;# 
   944                           opt subtitle "HI-TECH Software Omniscient Code Generator (Lite mode) build 49521"
   945  0000                     SSPCON1 equ 0FC6h ;# 
   946                           opt subtitle "HI-TECH Software Omniscient Code Generator (Lite mode) build 49521"
   947  0000                     SSP1STAT equ 0FC7h ;# 
   948                           opt subtitle "HI-TECH Software Omniscient Code Generator (Lite mode) build 49521"
   949  0000                     SSPSTAT equ 0FC7h ;# 
   950                           opt subtitle "HI-TECH Software Omniscient Code Generator (Lite mode) build 49521"
   951  0000                     SSP1ADD equ 0FC8h ;# 
   952                           opt subtitle "HI-TECH Software Omniscient Code Generator (Lite mode) build 49521"
   953  0000                     SSPADD equ 0FC8h ;# 
   954                           opt subtitle "HI-TECH Software Omniscient Code Generator (Lite mode) build 49521"
   955  0000                     SSP1BUF equ 0FC9h ;# 
   956                           opt subtitle "HI-TECH Software Omniscient Code Generator (Lite mode) build 49521"
   957  0000                     SSPBUF equ 0FC9h ;# 
   958                           opt subtitle "HI-TECH Software Omniscient Code Generator (Lite mode) build 49521"
   959  0000                     SSP1MSK equ 0FCAh ;# 
   960                           opt subtitle "HI-TECH Software Omniscient Code Generator (Lite mode) build 49521"
   961  0000                     SSPMSK equ 0FCAh ;# 
   962                           opt subtitle "HI-TECH Software Omniscient Code Generator (Lite mode) build 49521"
   963  0000                     SSP1CON3 equ 0FCBh ;# 
   964                           opt subtitle "HI-TECH Software Omniscient Code Generator (Lite mode) build 49521"
   965  0000                     SSPCON3 equ 0FCBh ;# 
   966                           opt subtitle "HI-TECH Software Omniscient Code Generator (Lite mode) build 49521"
   967  0000                     T1GCON equ 0FCCh ;# 
   968                           opt subtitle "HI-TECH Software Omniscient Code Generator (Lite mode) build 49521"
   969  0000                     T1CON equ 0FCDh ;# 
   970                           opt subtitle "HI-TECH Software Omniscient Code Generator (Lite mode) build 49521"
   971  0000                     TMR1 equ 0FCEh ;# 
   972                           opt subtitle "HI-TECH Software Omniscient Code Generator (Lite mode) build 49521"
   973  0000                     TMR1L equ 0FCEh ;# 
   974                           opt subtitle "HI-TECH Software Omniscient Code Generator (Lite mode) build 49521"
   975  0000                     TMR1H equ 0FCFh ;# 
   976                           opt subtitle "HI-TECH Software Omniscient Code Generator (Lite mode) build 49521"
   977  0000                     RCON equ 0FD0h ;# 
   978                           opt subtitle "HI-TECH Software Omniscient Code Generator (Lite mode) build 49521"
   979  0000                     WDTCON equ 0FD1h ;# 
   980                           opt subtitle "HI-TECH Software Omniscient Code Generator (Lite mode) build 49521"
   981  0000                     OSCCON2 equ 0FD2h ;# 
   982                           opt subtitle "HI-TECH Software Omniscient Code Generator (Lite mode) build 49521"
   983  0000                     OSCCON equ 0FD3h ;# 
   984                           opt subtitle "HI-TECH Software Omniscient Code Generator (Lite mode) build 49521"
   985  0000                     T0CON equ 0FD5h ;# 
   986                           opt subtitle "HI-TECH Software Omniscient Code Generator (Lite mode) build 49521"
   987  0000                     TMR0 equ 0FD6h ;# 
   988                           opt subtitle "HI-TECH Software Omniscient Code Generator (Lite mode) build 49521"
   989  0000                     TMR0L equ 0FD6h ;# 
   990                           opt subtitle "HI-TECH Software Omniscient Code Generator (Lite mode) build 49521"
   991  0000                     TMR0H equ 0FD7h ;# 
   992                           opt subtitle "HI-TECH Software Omniscient Code Generator (Lite mode) build 49521"
   993  0000                     STATUS equ 0FD8h ;# 
   994                           opt subtitle "HI-TECH Software Omniscient Code Generator (Lite mode) build 49521"
   995  0000                     FSR2 equ 0FD9h ;# 
   996                           opt subtitle "HI-TECH Software Omniscient Code Generator (Lite mode) build 49521"
   997  0000                     FSR2L equ 0FD9h ;# 
   998                           opt subtitle "HI-TECH Software Omniscient Code Generator (Lite mode) build 49521"
   999  0000                     FSR2H equ 0FDAh ;# 
  1000                           opt subtitle "HI-TECH Software Omniscient Code Generator (Lite mode) build 49521"
  1001  0000                     PLUSW2 equ 0FDBh ;# 
  1002                           opt subtitle "HI-TECH Software Omniscient Code Generator (Lite mode) build 49521"
  1003  0000                     PREINC2 equ 0FDCh ;# 
  1004                           opt subtitle "HI-TECH Software Omniscient Code Generator (Lite mode) build 49521"
  1005  0000                     POSTDEC2 equ 0FDDh ;# 
  1006                           opt subtitle "HI-TECH Software Omniscient Code Generator (Lite mode) build 49521"
  1007  0000                     POSTINC2 equ 0FDEh ;# 
  1008                           opt subtitle "HI-TECH Software Omniscient Code Generator (Lite mode) build 49521"
  1009  0000                     INDF2 equ 0FDFh ;# 
  1010                           opt subtitle "HI-TECH Software Omniscient Code Generator (Lite mode) build 49521"
  1011  0000                     BSR equ 0FE0h ;# 
  1012                           opt subtitle "HI-TECH Software Omniscient Code Generator (Lite mode) build 49521"
  1013  0000                     FSR1 equ 0FE1h ;# 
  1014                           opt subtitle "HI-TECH Software Omniscient Code Generator (Lite mode) build 49521"
  1015  0000                     FSR1L equ 0FE1h ;# 
  1016                           opt subtitle "HI-TECH Software Omniscient Code Generator (Lite mode) build 49521"
  1017  0000                     FSR1H equ 0FE2h ;# 
  1018                           opt subtitle "HI-TECH Software Omniscient Code Generator (Lite mode) build 49521"
  1019  0000                     PLUSW1 equ 0FE3h ;# 
  1020                           opt subtitle "HI-TECH Software Omniscient Code Generator (Lite mode) build 49521"
  1021  0000                     PREINC1 equ 0FE4h ;# 
  1022                           opt subtitle "HI-TECH Software Omniscient Code Generator (Lite mode) build 49521"
  1023  0000                     POSTDEC1 equ 0FE5h ;# 
  1024                           opt subtitle "HI-TECH Software Omniscient Code Generator (Lite mode) build 49521"
  1025  0000                     POSTINC1 equ 0FE6h ;# 
  1026                           opt subtitle "HI-TECH Software Omniscient Code Generator (Lite mode) build 49521"
  1027  0000                     INDF1 equ 0FE7h ;# 
  1028                           opt subtitle "HI-TECH Software Omniscient Code Generator (Lite mode) build 49521"
  1029  0000                     WREG equ 0FE8h ;# 
  1030                           opt subtitle "HI-TECH Software Omniscient Code Generator (Lite mode) build 49521"
  1031  0000                     FSR0 equ 0FE9h ;# 
  1032                           opt subtitle "HI-TECH Software Omniscient Code Generator (Lite mode) build 49521"
  1033  0000                     FSR0L equ 0FE9h ;# 
  1034                           opt subtitle "HI-TECH Software Omniscient Code Generator (Lite mode) build 49521"
  1035  0000                     FSR0H equ 0FEAh ;# 
  1036                           opt subtitle "HI-TECH Software Omniscient Code Generator (Lite mode) build 49521"
  1037  0000                     PLUSW0 equ 0FEBh ;# 
  1038                           opt subtitle "HI-TECH Software Omniscient Code Generator (Lite mode) build 49521"
  1039  0000                     PREINC0 equ 0FECh ;# 
  1040                           opt subtitle "HI-TECH Software Omniscient Code Generator (Lite mode) build 49521"
  1041  0000                     POSTDEC0 equ 0FEDh ;# 
  1042                           opt subtitle "HI-TECH Software Omniscient Code Generator (Lite mode) build 49521"
  1043  0000                     POSTINC0 equ 0FEEh ;# 
  1044                           opt subtitle "HI-TECH Software Omniscient Code Generator (Lite mode) build 49521"
  1045  0000                     INDF0 equ 0FEFh ;# 
  1046                           opt subtitle "HI-TECH Software Omniscient Code Generator (Lite mode) build 49521"
  1047  0000                     INTCON3 equ 0FF0h ;# 
  1048                           opt subtitle "HI-TECH Software Omniscient Code Generator (Lite mode) build 49521"
  1049  0000                     INTCON2 equ 0FF1h ;# 
  1050                           opt subtitle "HI-TECH Software Omniscient Code Generator (Lite mode) build 49521"
  1051  0000                     INTCON equ 0FF2h ;# 
  1052                           opt subtitle "HI-TECH Software Omniscient Code Generator (Lite mode) build 49521"
  1053  0000                     PROD equ 0FF3h ;# 
  1054                           opt subtitle "HI-TECH Software Omniscient Code Generator (Lite mode) build 49521"
  1055  0000                     PRODL equ 0FF3h ;# 
  1056                           opt subtitle "HI-TECH Software Omniscient Code Generator (Lite mode) build 49521"
  1057  0000                     PRODH equ 0FF4h ;# 
  1058                           opt subtitle "HI-TECH Software Omniscient Code Generator (Lite mode) build 49521"
  1059  0000                     TABLAT equ 0FF5h ;# 
  1060                           opt subtitle "HI-TECH Software Omniscient Code Generator (Lite mode) build 49521"
  1061  0000                     TBLPTR equ 0FF6h ;# 
  1062                           opt subtitle "HI-TECH Software Omniscient Code Generator (Lite mode) build 49521"
  1063  0000                     TBLPTRL equ 0FF6h ;# 
  1064                           opt subtitle "HI-TECH Software Omniscient Code Generator (Lite mode) build 49521"
  1065  0000                     TBLPTRH equ 0FF7h ;# 
  1066                           opt subtitle "HI-TECH Software Omniscient Code Generator (Lite mode) build 49521"
  1067  0000                     TBLPTRU equ 0FF8h ;# 
  1068                           opt subtitle "HI-TECH Software Omniscient Code Generator (Lite mode) build 49521"
  1069  0000                     PCLAT equ 0FF9h ;# 
  1070                           opt subtitle "HI-TECH Software Omniscient Code Generator (Lite mode) build 49521"
  1071  0000                     PC equ 0FF9h ;# 
  1072                           opt subtitle "HI-TECH Software Omniscient Code Generator (Lite mode) build 49521"
  1073  0000                     PCL equ 0FF9h ;# 
  1074                           opt subtitle "HI-TECH Software Omniscient Code Generator (Lite mode) build 49521"
  1075  0000                     PCLATH equ 0FFAh ;# 
  1076                           opt subtitle "HI-TECH Software Omniscient Code Generator (Lite mode) build 49521"
  1077  0000                     PCLATU equ 0FFBh ;# 
  1078                           opt subtitle "HI-TECH Software Omniscient Code Generator (Lite mode) build 49521"
  1079  0000                     STKPTR equ 0FFCh ;# 
  1080                           opt subtitle "HI-TECH Software Omniscient Code Generator (Lite mode) build 49521"
  1081  0000                     TOS equ 0FFDh ;# 
  1082                           opt subtitle "HI-TECH Software Omniscient Code Generator (Lite mode) build 49521"
  1083  0000                     TOSL equ 0FFDh ;# 
  1084                           opt subtitle "HI-TECH Software Omniscient Code Generator (Lite mode) build 49521"
  1085  0000                     TOSH equ 0FFEh ;# 
  1086                           opt subtitle "HI-TECH Software Omniscient Code Generator (Lite mode) build 49521"
  1087  0000                     TOSU equ 0FFFh ;# 
  1088                           opt subtitle "HI-TECH Software Omniscient Code Generator (Lite mode) build 49521"
  1089                           
  1090                           opt pagewidth 120
  1091                           
  1092                           	opt lm
  1093                           
  1094                           	processor	18F26K22
  1095                           porta	equ	0F80h
  1096                           portb	equ	0F81h
  1097                           portc	equ	0F82h
  1098                           portd	equ	0F83h
  1099                           porte	equ	0F84h
  1100                           lata	equ	0F89h
  1101                           latb	equ	0F8Ah
  1102                           latc	equ	0F8Bh
  1103                           latd	equ	0F8Ch
  1104                           late	equ	0F8Dh
  1105                           trisa	equ	0F92h
  1106                           trisb	equ	0F93h
  1107                           trisc	equ	0F94h
  1108                           trisd	equ	0F95h
  1109                           trise	equ	0F96h
  1110                           pie1	equ	0F9Dh
  1111                           pir1	equ	0F9Eh
  1112  00063A                     __pidataCOMRAM:
  1113                           opt subtitle "HI-TECH Software Omniscient Code Generator (Lite mode) build 49521"
  1114                           
  1115                           opt pagewidth 120
  1116                           
  1117  00063A  32                 	db	low(032h)
  1118  00063B  32                 	db	low(032h)
  1119  00063C  32                 	db	low(032h)
  1120  00063D  32                 	db	low(032h)
  1121  00063E  32                 	db	low(032h)
  1122  00063F  32                 	db	low(032h)
  1123                           opt subtitle "HI-TECH Software Omniscient Code Generator (Lite mode) build 49521"
  1124                           
  1125                           opt pagewidth 120
  1126  000640  01                 	db	low(01h)
  1127                           opt subtitle "HI-TECH Software Omniscient Code Generator (Lite mode) build 49521"
  1128                           
  1129  000641  01                 	db	low(01h)
  1130                           opt subtitle "HI-TECH Software Omniscient Code Generator (Lite mode) build 49521"
  1131                           
  1132  000642  01                 	db	low(01h)
  1133                           opt subtitle "HI-TECH Software Omniscient Code Generator (Lite mode) build 49521"
  1134                           
  1135  000643  01                 	db	low(01h)
  1136                           opt subtitle "HI-TECH Software Omniscient Code Generator (Lite mode) build 49521"
  1137                           
  1138  000644  01                 	db	low(01h)
  1139                           opt subtitle "HI-TECH Software Omniscient Code Generator (Lite mode) build 49521"
  1140                           
  1141                           opt pagewidth 120
  1142  000645  3F                 	db	low(03Fh)
  1143                           opt subtitle "HI-TECH Software Omniscient Code Generator (Lite mode) build 49521"
  1144                           
  1145                           opt pagewidth 120
  1146  000646  01                 	db	low(01h)
  1147                           opt subtitle "HI-TECH Software Omniscient Code Generator (Lite mode) build 49521"
  1148                           
  1149                           opt pagewidth 120
  1150                           
  1151                           	opt lm
  1152                           
  1153                           	processor	18F26K22
  1154                           porta	equ	0F80h
  1155  0000                     _ANSELB	set	0xF39
  1156                           opt subtitle "HI-TECH Software Omniscient Code Generator (Lite mode) build 49521"
  1157  0000                     _ANSELC	set	0xF3A
  1158                           opt subtitle "HI-TECH Software Omniscient Code Generator (Lite mode) build 49521"
  1159  0000                     _INTCON2bits	set	0xFF1
  1160                           opt subtitle "HI-TECH Software Omniscient Code Generator (Lite mode) build 49521"
  1161  0000                     _INTCONbits	set	0xFF2
  1162                           opt subtitle "HI-TECH Software Omniscient Code Generator (Lite mode) build 49521"
  1163  0000                     _LATAbits	set	0xF89
  1164                           opt subtitle "HI-TECH Software Omniscient Code Generator (Lite mode) build 49521"
  1165  0000                     _LATBbits	set	0xF8A
  1166                           opt subtitle "HI-TECH Software Omniscient Code Generator (Lite mode) build 49521"
  1167  0000                     _LATCbits	set	0xF8B
  1168                           opt subtitle "HI-TECH Software Omniscient Code Generator (Lite mode) build 49521"
  1169  0000                     _OSCCONbits	set	0xFD3
  1170                           opt subtitle "HI-TECH Software Omniscient Code Generator (Lite mode) build 49521"
  1171  0000                     _OSCTUNEbits	set	0xF9B
  1172                           opt subtitle "HI-TECH Software Omniscient Code Generator (Lite mode) build 49521"
  1173  0000                     _PIE1bits	set	0xF9D
  1174                           opt subtitle "HI-TECH Software Omniscient Code Generator (Lite mode) build 49521"
  1175  0000                     _PIR1bits	set	0xF9E
  1176                           opt subtitle "HI-TECH Software Omniscient Code Generator (Lite mode) build 49521"
  1177  0000                     _RCONbits	set	0xFD0
  1178                           opt subtitle "HI-TECH Software Omniscient Code Generator (Lite mode) build 49521"
  1179  0000                     _SSP1ADD	set	0xFC8
  1180                           opt subtitle "HI-TECH Software Omniscient Code Generator (Lite mode) build 49521"
  1181  0000                     _SSP1BUF	set	0xFC9
  1182                           opt subtitle "HI-TECH Software Omniscient Code Generator (Lite mode) build 49521"
  1183  0000                     _SSP1CON1bits	set	0xFC6
  1184                           opt subtitle "HI-TECH Software Omniscient Code Generator (Lite mode) build 49521"
  1185  0000                     _SSP1CON2bits	set	0xFC5
  1186                           opt subtitle "HI-TECH Software Omniscient Code Generator (Lite mode) build 49521"
  1187  0000                     _SSP1STATbits	set	0xFC7
  1188                           opt subtitle "HI-TECH Software Omniscient Code Generator (Lite mode) build 49521"
  1189  0000                     _T0CON	set	0xFD5
  1190                           opt subtitle "HI-TECH Software Omniscient Code Generator (Lite mode) build 49521"
  1191  0000                     _T0CONbits	set	0xFD5
  1192                           opt subtitle "HI-TECH Software Omniscient Code Generator (Lite mode) build 49521"
  1193  0000                     _TMR0L	set	0xFD6
  1194                           opt subtitle "HI-TECH Software Omniscient Code Generator (Lite mode) build 49521"
  1195  0000                     _TRISAbits	set	0xF92
  1196                           opt subtitle "HI-TECH Software Omniscient Code Generator (Lite mode) build 49521"
  1197  0000                     _TRISBbits	set	0xF93
  1198                           opt subtitle "HI-TECH Software Omniscient Code Generator (Lite mode) build 49521"
  1199  0000                     _TRISC	set	0xF94
  1200                           opt subtitle "HI-TECH Software Omniscient Code Generator (Lite mode) build 49521"
  1201  0000                     _TRISCbits	set	0xF94
  1202                           opt subtitle "HI-TECH Software Omniscient Code Generator (Lite mode) build 49521"
  1203                           
  1204                           opt pagewidth 120
  1205  000049                     __pnvCOMRAM:
  1206                           opt subtitle "HI-TECH Software Omniscient Code Generator (Lite mode) build 49521"
  1207  000049                     _AIL_PWM_REG:
  1208  000049                            ds      2
  1209                           opt subtitle "HI-TECH Software Omniscient Code Generator (Lite mode) build 49521"
  1210                           
  1211  00004B                     _AUX_PWM_REG:
  1212  00004B                            ds      2
  1213                           opt subtitle "HI-TECH Software Omniscient Code Generator (Lite mode) build 49521"
  1214                           
  1215  00004D                     _ELEV_PWM_REG:
  1216  00004D                            ds      2
  1217                           opt subtitle "HI-TECH Software Omniscient Code Generator (Lite mode) build 49521"
  1218                           
  1219  00004F                     _ESC_PWM_REG:
  1220  00004F                            ds      2
  1221                           opt subtitle "HI-TECH Software Omniscient Code Generator (Lite mode) build 49521"
  1222                           
  1223  000051                     _GEAR_PWM_REG:
  1224  000051                            ds      2
  1225                           opt subtitle "HI-TECH Software Omniscient Code Generator (Lite mode) build 49521"
  1226                           
  1227  000053                     _RUDD_PWM_REG:
  1228  000053                            ds      2
  1229                           opt subtitle "HI-TECH Software Omniscient Code Generator (Lite mode) build 49521"
  1230                           
  1231  0000                     __CFG_IESO$OFF equ 0x0
  1232                           opt subtitle "HI-TECH Software Omniscient Code Generator (Lite mode) build 49521"
  1233  0000                     __CFG_FOSC$INTIO67 equ 0x0
  1234                           opt subtitle "HI-TECH Software Omniscient Code Generator (Lite mode) build 49521"
  1235  0000                     __CFG_PRICLKEN$ON equ 0x0
  1236                           opt subtitle "HI-TECH Software Omniscient Code Generator (Lite mode) build 49521"
  1237  0000                     __CFG_FCMEN$OFF equ 0x0
  1238                           opt subtitle "HI-TECH Software Omniscient Code Generator (Lite mode) build 49521"
  1239  0000                     __CFG_PLLCFG$ON equ 0x0
  1240                           opt subtitle "HI-TECH Software Omniscient Code Generator (Lite mode) build 49521"
  1241  0000                     __CFG_BOREN$SBORDIS equ 0x0
  1242                           opt subtitle "HI-TECH Software Omniscient Code Generator (Lite mode) build 49521"
  1243  0000                     __CFG_BORV$250 equ 0x0
  1244                           opt subtitle "HI-TECH Software Omniscient Code Generator (Lite mode) build 49521"
  1245  0000                     __CFG_PWRTEN$ON equ 0x0
  1246                           opt subtitle "HI-TECH Software Omniscient Code Generator (Lite mode) build 49521"
  1247  0000                     __CFG_WDTPS$128 equ 0x0
  1248                           opt subtitle "HI-TECH Software Omniscient Code Generator (Lite mode) build 49521"
  1249  0000                     __CFG_WDTEN$ON equ 0x0
  1250                           opt subtitle "HI-TECH Software Omniscient Code Generator (Lite mode) build 49521"
  1251  0000                     __CFG_CCP2MX$PORTB3 equ 0x0
  1252                           opt subtitle "HI-TECH Software Omniscient Code Generator (Lite mode) build 49521"
  1253  0000                     __CFG_PBADEN$OFF equ 0x0
  1254                           opt subtitle "HI-TECH Software Omniscient Code Generator (Lite mode) build 49521"
  1255  0000                     __CFG_CCP3MX$PORTB5 equ 0x0
  1256                           opt subtitle "HI-TECH Software Omniscient Code Generator (Lite mode) build 49521"
  1257  0000                     __CFG_MCLRE$EXTMCLR equ 0x0
  1258                           opt subtitle "HI-TECH Software Omniscient Code Generator (Lite mode) build 49521"
  1259  0000                     __CFG_DEBUG$ON equ 0x0
  1260                           opt subtitle "HI-TECH Software Omniscient Code Generator (Lite mode) build 49521"
  1261  0000                     __CFG_STVREN$ON equ 0x0
  1262                           opt subtitle "HI-TECH Software Omniscient Code Generator (Lite mode) build 49521"
  1263                           
  1264                           opt pagewidth 120
  1265                           
  1266  0005C2                     __pcinit:
  1267                           opt subtitle "HI-TECH Software Omniscient Code Generator (Lite mode) build 49521"
  1268  0005C2                     start_initialization:
  1269                           opt subtitle "HI-TECH Software Omniscient Code Generator (Lite mode) build 49521"
  1270                           
  1271  0005C2                     __initialization:
  1272                           opt subtitle "HI-TECH Software Omniscient Code Generator (Lite mode) build 49521"
  1273                           
  1274  000001                     __pbssCOMRAM:
  1275                           opt subtitle "HI-TECH Software Omniscient Code Generator (Lite mode) build 49521"
  1276  000001                     _kickAutoCount:
  1277  000001                            ds      4
  1278                           opt subtitle "HI-TECH Software Omniscient Code Generator (Lite mode) build 49521"
  1279                           
  1280  000005                     _AIL_PWM_BUFFER_REG:
  1281  000005                            ds      2
  1282                           opt subtitle "HI-TECH Software Omniscient Code Generator (Lite mode) build 49521"
  1283                           
  1284  000007                     _AUX_PWM_BUFFER_REG:
  1285  000007                            ds      2
  1286                           opt subtitle "HI-TECH Software Omniscient Code Generator (Lite mode) build 49521"
  1287                           
  1288  000009                     _ELEV_PWM_BUFFER_REG:
  1289  000009                            ds      2
  1290                           opt subtitle "HI-TECH Software Omniscient Code Generator (Lite mode) build 49521"
  1291                           
  1292  00000B                     _ESC_PWM_BUFFER_REG:
  1293  00000B                            ds      2
  1294                           opt subtitle "HI-TECH Software Omniscient Code Generator (Lite mode) build 49521"
  1295                           
  1296  00000D                     _GEAR_PWM_BUFFER_REG:
  1297  00000D                            ds      2
  1298                           opt subtitle "HI-TECH Software Omniscient Code Generator (Lite mode) build 49521"
  1299                           
  1300  00000F                     _RUDD_PWM_BUFFER_REG:
  1301  00000F                            ds      2
  1302                           opt subtitle "HI-TECH Software Omniscient Code Generator (Lite mode) build 49521"
  1303  000011                     _count:
  1304  000011                            ds      2
  1305                           opt subtitle "HI-TECH Software Omniscient Code Generator (Lite mode) build 49521"
  1306  000013                     _I2C_FSM:
  1307  000013                            ds      1
  1308                           opt subtitle "HI-TECH Software Omniscient Code Generator (Lite mode) build 49521"
  1309  000014                     _RECEIVING_FROM_MASTER:
  1310  000014                            ds      1
  1311                           opt subtitle "HI-TECH Software Omniscient Code Generator (Lite mode) build 49521"
  1312  000015                     _checksum:
  1313  000015                            ds      1
  1314                           opt subtitle "HI-TECH Software Omniscient Code Generator (Lite mode) build 49521"
  1315  000016                     _data_updated:
  1316  000016                            ds      1
  1317                           opt subtitle "HI-TECH Software Omniscient Code Generator (Lite mode) build 49521"
  1318  000017                     _dataBuffer:
  1319  000017                            ds      8
  1320                           opt subtitle "HI-TECH Software Omniscient Code Generator (Lite mode) build 49521"
  1321                           
  1322  00003C                     __pdataCOMRAM:
  1323                           opt subtitle "HI-TECH Software Omniscient Code Generator (Lite mode) build 49521"
  1324                           
  1325                           opt pagewidth 120
  1326                           
  1327  00003C                     _percentActuation:
  1328  00003C                            ds      6
  1329                           opt subtitle "HI-TECH Software Omniscient Code Generator (Lite mode) build 49521"
  1330                           
  1331                           opt pagewidth 120
  1332                           
  1333  000042                     _AIL_n:
  1334  000042                            ds      1
  1335                           opt subtitle "HI-TECH Software Omniscient Code Generator (Lite mode) build 49521"
  1336                           
  1337                           opt pagewidth 120
  1338  000043                     _AUX_n:
  1339  000043                            ds      1
  1340                           opt subtitle "HI-TECH Software Omniscient Code Generator (Lite mode) build 49521"
  1341                           
  1342                           opt pagewidth 120
  1343  000044                     _ELEV_n:
  1344  000044                            ds      1
  1345                           opt subtitle "HI-TECH Software Omniscient Code Generator (Lite mode) build 49521"
  1346                           
  1347                           opt pagewidth 120
  1348  000045                     _ESC_n:
  1349  000045                            ds      1
  1350                           opt subtitle "HI-TECH Software Omniscient Code Generator (Lite mode) build 49521"
  1351                           
  1352                           opt pagewidth 120
  1353  000046                     _GEAR_n:
  1354  000046                            ds      1
  1355                           opt subtitle "HI-TECH Software Omniscient Code Generator (Lite mode) build 49521"
  1356                           
  1357                           opt pagewidth 120
  1358                           
  1359  000047                     _PWM_SET:
  1360  000047                            ds      1
  1361                           opt subtitle "HI-TECH Software Omniscient Code Generator (Lite mode) build 49521"
  1362                           
  1363                           opt pagewidth 120
  1364                           
  1365  000048                     _RUDD_n:
  1366  000048                            ds      1
  1367                           opt subtitle "HI-TECH Software Omniscient Code Generator (Lite mode) build 49521"
  1368                           
  1369                           opt pagewidth 120
  1370  0005C2  EE00  F001         lfsr	0,__pbssCOMRAM
  1371  0005C6  0E1E               movlw	30
  1372  0005C8                     clear_0:
  1373  0005C8  6AEE               clrf	postinc0,c
  1374  0005CA  06E8               decf	wreg
  1375  0005CC  E1FD               bnz	clear_0
  1376                           opt subtitle "HI-TECH Software Omniscient Code Generator (Lite mode) build 49521"
  1377                           
  1378                           opt pagewidth 120
  1379  0005CE  0E3A               	movlw	low (__pidataCOMRAM)
  1380  0005D0  6EF6               	movwf	tblptrl
  1381  0005D2  0E06               	movlw	high(__pidataCOMRAM)
  1382  0005D4  6EF7               	movwf	tblptrh
  1383  0005D6  0E00               	movlw	low highword(__pidataCOMRAM)
  1384  0005D8  6EF8               	movwf	tblptru
  1385  0005DA  EE00  F03C         	lfsr	0,__pdataCOMRAM
  1386  0005DE  EE10 F00D          	lfsr	1,13
  1387  0005E2                     	copy_data0:
  1388  0005E2  0009               	tblrd	*+
  1389  0005E4  CFF5 FFEE          	movff	tablat, postinc0
  1390  0005E8  50E5               	movf	postdec1,w
  1391  0005EA  50E1               	movf	fsr1l,w
  1392  0005EC  E1FA               	bnz	copy_data0
  1393                           opt subtitle "HI-TECH Software Omniscient Code Generator (Lite mode) build 49521"
  1394                           
  1395                           opt pagewidth 120
  1396                           
  1397                           	opt lm
  1398  0005EE                     end_of_initialization:
  1399  0005EE                     __end_of__initialization:movlb 0
  1400  0005F0  EF02  F002         goto _main	;jump to C main() function
  1401                           opt subtitle "HI-TECH Software Omniscient Code Generator (Lite mode) build 49521"
  1402                           
  1403  00001F                     __pcstackCOMRAM:
  1404  00001F                     ?_SETUP_clock:	; 0 bytes @ 0x0
  1405  00001F                     ?_SETUP_io:	; 0 bytes @ 0x0
  1406  00001F                     ?_SETUP_i2c:	; 0 bytes @ 0x0
  1407  00001F                     ?_SETUP_swI2C_intOn:	; 0 bytes @ 0x0
  1408  00001F                     ?_SETUP_swI2C_intOff:	; 0 bytes @ 0x0
  1409  00001F                     ??_SETUP_swI2C_intOff:	; 0 bytes @ 0x0
  1410  00001F                     ?_SETUP_releaseI2C:	; 0 bytes @ 0x0
  1411  00001F                     ??_SETUP_releaseI2C:	; 0 bytes @ 0x0
  1412                           opt subtitle "HI-TECH Software Omniscient Code Generator (Lite mode) build 49521"
  1413  00001F                     ?_SETUP_T0_activate:	; 0 bytes @ 0x0
  1414  00001F                     ?_SETUP_T0_deactivate:	; 0 bytes @ 0x0
  1415  00001F                     ??_SETUP_T0_deactivate:	; 0 bytes @ 0x0
  1416  00001F                     ?_SETUP_PWM:	; 0 bytes @ 0x0
  1417  00001F                     ?_InterruptHandlerHigh:	; 0 bytes @ 0x0
  1418  00001F                     ?i2_SETUP_swI2C_intOn:	; 0 bytes @ 0x0
  1419  00001F                     ??i2_SETUP_swI2C_intOn:	; 0 bytes @ 0x0
  1420  00001F                     ?_main:	; 2 bytes @ 0x0
  1421                           opt subtitle "HI-TECH Software Omniscient Code Generator (Lite mode) build 49521"
  1422  00001F                     ?___awdiv:	; 2 bytes @ 0x0
  1423                           opt subtitle "HI-TECH Software Omniscient Code Generator (Lite mode) build 49521"
  1424  00001F                     SETUP_T0_activate@TIMER_MATCH:	; 1 bytes @ 0x0
  1425                           opt subtitle "HI-TECH Software Omniscient Code Generator (Lite mode) build 49521"
  1426  00001F                     ___awdiv@dividend:	; 2 bytes @ 0x0
  1427  00001F                     	ds   1
  1428  000020                     ??_SETUP_T0_activate:	; 0 bytes @ 0x1
  1429  000020                     	ds   1
  1430                           opt subtitle "HI-TECH Software Omniscient Code Generator (Lite mode) build 49521"
  1431  000021                     ___awdiv@divisor:	; 2 bytes @ 0x2
  1432  000021                     	ds   2
  1433  000023                     ??___awdiv:	; 0 bytes @ 0x4
  1434  000023                     	ds   1
  1435                           opt subtitle "HI-TECH Software Omniscient Code Generator (Lite mode) build 49521"
  1436  000024                     ___awdiv@counter:	; 1 bytes @ 0x5
  1437  000024                     	ds   1
  1438                           opt subtitle "HI-TECH Software Omniscient Code Generator (Lite mode) build 49521"
  1439  000025                     ___awdiv@sign:	; 1 bytes @ 0x6
  1440  000025                     	ds   1
  1441                           opt subtitle "HI-TECH Software Omniscient Code Generator (Lite mode) build 49521"
  1442  000026                     ___awdiv@quotient:	; 2 bytes @ 0x7
  1443  000026                     	ds   2
  1444  000028                     ??_InterruptHandlerHigh:	; 0 bytes @ 0x9
  1445  000028                     	ds   15
  1446                           opt subtitle "HI-TECH Software Omniscient Code Generator (Lite mode) build 49521"
  1447  000037                     InterruptHandlerHigh@buffer:	; 1 bytes @ 0x18
  1448  000037                     	ds   1
  1449  000038                     ??_SETUP_clock:	; 0 bytes @ 0x19
  1450  000038                     ??_SETUP_io:	; 0 bytes @ 0x19
  1451  000038                     ??_SETUP_i2c:	; 0 bytes @ 0x19
  1452  000038                     ??_SETUP_swI2C_intOn:	; 0 bytes @ 0x19
  1453  000038                     ??_SETUP_PWM:	; 0 bytes @ 0x19
  1454  000038                     ??_main:	; 0 bytes @ 0x19
  1455                           opt subtitle "HI-TECH Software Omniscient Code Generator (Lite mode) build 49521"
  1456  000038                     main@i:	; 4 bytes @ 0x19
  1457  000038                     	ds   4
  1458                           opt subtitle "HI-TECH Software Omniscient Code Generator (Lite mode) build 49521"
  1459                           
  1460                           opt pagewidth 120
  1461                           
  1462                           	opt lm
  1463                           
  1464                           	processor	18F26K22
  1465                           porta	equ	0F80h
  1466                           portb	equ	0F81h
  1467                           portc	equ	0F82h
  1468                           portd	equ	0F83h
  1469                           porte	equ	0F84h
  1470                           lata	equ	0F89h
  1471                           latb	equ	0F8Ah
  1472                           latc	equ	0F8Bh
  1473                           latd	equ	0F8Ch
  1474                           late	equ	0F8Dh
  1475                           trisa	equ	0F92h
  1476                           trisb	equ	0F93h
  1477                           trisc	equ	0F94h
  1478                           trisd	equ	0F95h
  1479                           trise	equ	0F96h
  1480                           pie1	equ	0F9Dh
  1481                           pir1	equ	0F9Eh
  1482                           ipr1	equ	0F9Fh
  1483                           pie2	equ	0FA0h
  1484                           pir2	equ	0FA1h
  1485                           ipr2	equ	0FA2h
  1486                           t3con	equ	0FB1h
  1487                           tmr3l	equ	0FB2h
  1488                           tmr3h	equ	0FB3h
  1489                           ccp1con	equ	0FBDh
  1490                           ccpr1l	equ	0FBEh
  1491                           ccpr1h	equ	0FBFh
  1492                           adcon1	equ	0FC1h
  1493                           adcon0	equ	0FC2h
  1494                           adresl	equ	0FC3h
  1495                           adresh	equ	0FC4h
  1496                           sspcon2	equ	0FC5h
  1497                           sspcon1	equ	0FC6h
  1498                           sspstat	equ	0FC7h
  1499                           sspadd	equ	0FC8h
  1500                           sspbuf	equ	0FC9h
  1501                           t2con	equ	0FCAh
  1502                           pr2	equ	0FCBh
  1503                           tmr2	equ	0FCCh
  1504                           t1con	equ	0FCDh
  1505                           tmr1l	equ	0FCEh
  1506                           tmr1h	equ	0FCFh
  1507                           rcon	equ	0FD0h
  1508                           wdtcon	equ	0FD1h
  1509                           lvdcon	equ	0FD2h
  1510                           osccon	equ	0FD3h
  1511                           t0con	equ	0FD5h
  1512                           tmr0l	equ	0FD6h
  1513                           tmr0h	equ	0FD7h
  1514                           status	equ	0FD8h
  1515                           fsr2	equ	0FD9h
  1516                           fsr2l	equ	0FD9h
  1517                           fsr2h	equ	0FDAh
  1518                           plusw2	equ	0FDBh
  1519                           preinc2	equ	0FDCh
  1520                           postdec2	equ	0FDDh
  1521                           postinc2	equ	0FDEh
  1522                           indf2	equ	0FDFh
  1523                           bsr	equ	0FE0h
  1524                           fsr1	equ	0FE1h
  1525                           fsr1l	equ	0FE1h
  1526                           fsr1h	equ	0FE2h
  1527                           plusw1	equ	0FE3h
  1528                           preinc1	equ	0FE4h
  1529                           postdec1	equ	0FE5h
  1530                           postinc1	equ	0FE6h
  1531                           indf1	equ	0FE7h
  1532                           wreg	equ	0FE8h
  1533                           fsr0	equ	0FE9h
  1534                           fsr0l	equ	0FE9h
  1535                           fsr0h	equ	0FEAh
  1536                           plusw0	equ	0FEBh
  1537                           preinc0	equ	0FECh
  1538                           postdec0	equ	0FEDh
  1539                           postinc0	equ	0FEEh
  1540                           indf0	equ	0FEFh
  1541                           intcon3	equ	0FF0h
  1542                           intcon2	equ	0FF1h
  1543                           intcon	equ	0FF2h
  1544                           prod	equ	0FF3h
  1545                           prodl	equ	0FF3h
  1546                           prodh	equ	0FF4h
  1547                           tablat	equ	0FF5h
  1548                           tblptr	equ	0FF6h
  1549                           tblptrl	equ	0FF6h
  1550                           tblptrh	equ	0FF7h
  1551                           tblptru	equ	0FF8h
  1552                           pcl	equ	0FF9h
  1553                           pclat	equ	0FFAh
  1554                           pclath	equ	0FFAh
  1555                           pclatu	equ	0FFBh
  1556                           stkptr	equ	0FFCh
  1557                           tosl	equ	0FFDh
  1558                           tosh	equ	0FFEh
  1559                           tosu	equ	0FFFh
  1560                           skipnz macro
  1561                           	btfsc	status,2
  1562                           	endm
  1563                           	global	__ramtop
  1564                           	global	__accesstop
  1565                           # 46 "/opt/microchip/xc8/v1.12/include/pic18f26k22.h"
  1566                           ANSELA equ 0F38h ;# 
  1567                           # 90 "/opt/microchip/xc8/v1.12/include/pic18f26k22.h"
  1568                           ANSELB equ 0F39h ;# 
  1569                           # 139 "/opt/microchip/xc8/v1.12/include/pic18f26k22.h"
  1570                           ANSELC equ 0F3Ah ;# 
  1571                           # 189 "/opt/microchip/xc8/v1.12/include/pic18f26k22.h"
  1572                           PMD2 equ 0F3Dh ;# 
  1573                           # 226 "/opt/microchip/xc8/v1.12/include/pic18f26k22.h"
  1574                           PMD1 equ 0F3Eh ;# 
  1575                           # 290 "/opt/microchip/xc8/v1.12/include/pic18f26k22.h"
  1576                           PMD0 equ 0F3Fh ;# 
  1577                           # 369 "/opt/microchip/xc8/v1.12/include/pic18f26k22.h"
  1578                           VREFCON2 equ 0F40h ;# 
  1579                           # 374 "/opt/microchip/xc8/v1.12/include/pic18f26k22.h"
  1580                           DACCON1 equ 0F40h ;# 
  1581                           # 470 "/opt/microchip/xc8/v1.12/include/pic18f26k22.h"
  1582                           VREFCON1 equ 0F41h ;# 
  1583                           # 475 "/opt/microchip/xc8/v1.12/include/pic18f26k22.h"
  1584                           DACCON0 equ 0F41h ;# 
  1585                           # 589 "/opt/microchip/xc8/v1.12/include/pic18f26k22.h"
  1586                           VREFCON0 equ 0F42h ;# 
  1587                           # 594 "/opt/microchip/xc8/v1.12/include/pic18f26k22.h"
  1588                           FVRCON equ 0F42h ;# 
  1589                           # 682 "/opt/microchip/xc8/v1.12/include/pic18f26k22.h"
  1590                           CTMUICON equ 0F43h ;# 
  1591                           # 687 "/opt/microchip/xc8/v1.12/include/pic18f26k22.h"
  1592                           CTMUICONH equ 0F43h ;# 
  1593                           # 831 "/opt/microchip/xc8/v1.12/include/pic18f26k22.h"
  1594                           CTMUCONL equ 0F44h ;# 
  1595                           # 836 "/opt/microchip/xc8/v1.12/include/pic18f26k22.h"
  1596                           CTMUCON1 equ 0F44h ;# 
  1597                           # 984 "/opt/microchip/xc8/v1.12/include/pic18f26k22.h"
  1598                           CTMUCONH equ 0F45h ;# 
  1599                           # 989 "/opt/microchip/xc8/v1.12/include/pic18f26k22.h"
  1600                           CTMUCON0 equ 0F45h ;# 
  1601                           # 1095 "/opt/microchip/xc8/v1.12/include/pic18f26k22.h"
  1602                           SRCON1 equ 0F46h ;# 
  1603                           # 1156 "/opt/microchip/xc8/v1.12/include/pic18f26k22.h"
  1604                           SRCON0 equ 0F47h ;# 
  1605                           # 1226 "/opt/microchip/xc8/v1.12/include/pic18f26k22.h"
  1606                           CCPTMRS1 equ 0F48h ;# 
  1607                           # 1277 "/opt/microchip/xc8/v1.12/include/pic18f26k22.h"
  1608                           CCPTMRS0 equ 0F49h ;# 
  1609                           # 1350 "/opt/microchip/xc8/v1.12/include/pic18f26k22.h"
  1610                           T6CON equ 0F4Ah ;# 
  1611                           # 1420 "/opt/microchip/xc8/v1.12/include/pic18f26k22.h"
  1612                           PR6 equ 0F4Bh ;# 
  1613                           # 1439 "/opt/microchip/xc8/v1.12/include/pic18f26k22.h"
  1614                           TMR6 equ 0F4Ch ;# 
  1615                           # 1458 "/opt/microchip/xc8/v1.12/include/pic18f26k22.h"
  1616                           T5GCON equ 0F4Dh ;# 
  1617                           # 1552 "/opt/microchip/xc8/v1.12/include/pic18f26k22.h"
  1618                           T5CON equ 0F4Eh ;# 
  1619                           # 1662 "/opt/microchip/xc8/v1.12/include/pic18f26k22.h"
  1620                           TMR5 equ 0F4Fh ;# 
  1621                           # 1668 "/opt/microchip/xc8/v1.12/include/pic18f26k22.h"
  1622                           TMR5L equ 0F4Fh ;# 
  1623                           # 1687 "/opt/microchip/xc8/v1.12/include/pic18f26k22.h"
  1624                           TMR5H equ 0F50h ;# 
  1625                           # 1706 "/opt/microchip/xc8/v1.12/include/pic18f26k22.h"
  1626                           T4CON equ 0F51h ;# 
  1627                           # 1776 "/opt/microchip/xc8/v1.12/include/pic18f26k22.h"
  1628                           PR4 equ 0F52h ;# 
  1629                           # 1795 "/opt/microchip/xc8/v1.12/include/pic18f26k22.h"
  1630                           TMR4 equ 0F53h ;# 
  1631                           # 1814 "/opt/microchip/xc8/v1.12/include/pic18f26k22.h"
  1632                           CCP5CON equ 0F54h ;# 
  1633                           # 1877 "/opt/microchip/xc8/v1.12/include/pic18f26k22.h"
  1634                           CCPR5 equ 0F55h ;# 
  1635                           # 1883 "/opt/microchip/xc8/v1.12/include/pic18f26k22.h"
  1636                           CCPR5L equ 0F55h ;# 
  1637                           # 1902 "/opt/microchip/xc8/v1.12/include/pic18f26k22.h"
  1638                           CCPR5H equ 0F56h ;# 
  1639                           # 1921 "/opt/microchip/xc8/v1.12/include/pic18f26k22.h"
  1640                           CCP4CON equ 0F57h ;# 
  1641                           # 1984 "/opt/microchip/xc8/v1.12/include/pic18f26k22.h"
  1642                           CCPR4 equ 0F58h ;# 
  1643                           # 1990 "/opt/microchip/xc8/v1.12/include/pic18f26k22.h"
  1644                           CCPR4L equ 0F58h ;# 
  1645                           # 2009 "/opt/microchip/xc8/v1.12/include/pic18f26k22.h"
  1646                           CCPR4H equ 0F59h ;# 
  1647                           # 2028 "/opt/microchip/xc8/v1.12/include/pic18f26k22.h"
  1648                           PSTR3CON equ 0F5Ah ;# 
  1649                           # 2115 "/opt/microchip/xc8/v1.12/include/pic18f26k22.h"
  1650                           ECCP3AS equ 0F5Bh ;# 
  1651                           # 2120 "/opt/microchip/xc8/v1.12/include/pic18f26k22.h"
  1652                           CCP3AS equ 0F5Bh ;# 
  1653                           # 2356 "/opt/microchip/xc8/v1.12/include/pic18f26k22.h"
  1654                           PWM3CON equ 0F5Ch ;# 
  1655                           # 2425 "/opt/microchip/xc8/v1.12/include/pic18f26k22.h"
  1656                           CCP3CON equ 0F5Dh ;# 
  1657                           # 2506 "/opt/microchip/xc8/v1.12/include/pic18f26k22.h"
  1658                           CCPR3 equ 0F5Eh ;# 
  1659                           # 2512 "/opt/microchip/xc8/v1.12/include/pic18f26k22.h"
  1660                           CCPR3L equ 0F5Eh ;# 
  1661                           # 2531 "/opt/microchip/xc8/v1.12/include/pic18f26k22.h"
  1662                           CCPR3H equ 0F5Fh ;# 
  1663                           # 2550 "/opt/microchip/xc8/v1.12/include/pic18f26k22.h"
  1664                           SLRCON equ 0F60h ;# 
  1665                           # 2581 "/opt/microchip/xc8/v1.12/include/pic18f26k22.h"
  1666                           WPUB equ 0F61h ;# 
  1667                           # 2642 "/opt/microchip/xc8/v1.12/include/pic18f26k22.h"
  1668                           IOCB equ 0F62h ;# 
  1669                           # 2680 "/opt/microchip/xc8/v1.12/include/pic18f26k22.h"
  1670                           PSTR2CON equ 0F63h ;# 
  1671                           # 2855 "/opt/microchip/xc8/v1.12/include/pic18f26k22.h"
  1672                           ECCP2AS equ 0F64h ;# 
  1673                           # 2860 "/opt/microchip/xc8/v1.12/include/pic18f26k22.h"
  1674                           CCP2AS equ 0F64h ;# 
  1675                           # 3096 "/opt/microchip/xc8/v1.12/include/pic18f26k22.h"
  1676                           PWM2CON equ 0F65h ;# 
  1677                           # 3165 "/opt/microchip/xc8/v1.12/include/pic18f26k22.h"
  1678                           CCP2CON equ 0F66h ;# 
  1679                           # 3240 "/opt/microchip/xc8/v1.12/include/pic18f26k22.h"
  1680                           CCPR2 equ 0F67h ;# 
  1681                           # 3246 "/opt/microchip/xc8/v1.12/include/pic18f26k22.h"
  1682                           CCPR2L equ 0F67h ;# 
  1683                           # 3265 "/opt/microchip/xc8/v1.12/include/pic18f26k22.h"
  1684                           CCPR2H equ 0F68h ;# 
  1685                           # 3284 "/opt/microchip/xc8/v1.12/include/pic18f26k22.h"
  1686                           SSP2CON3 equ 0F69h ;# 
  1687                           # 3345 "/opt/microchip/xc8/v1.12/include/pic18f26k22.h"
  1688                           SSP2MSK equ 0F6Ah ;# 
  1689                           # 3406 "/opt/microchip/xc8/v1.12/include/pic18f26k22.h"
  1690                           SSP2CON2 equ 0F6Bh ;# 
  1691                           # 3583 "/opt/microchip/xc8/v1.12/include/pic18f26k22.h"
  1692                           SSP2CON1 equ 0F6Ch ;# 
  1693                           # 3723 "/opt/microchip/xc8/v1.12/include/pic18f26k22.h"
  1694                           SSP2STAT equ 0F6Dh ;# 
  1695                           # 4115 "/opt/microchip/xc8/v1.12/include/pic18f26k22.h"
  1696                           SSP2ADD equ 0F6Eh ;# 
  1697                           # 4205 "/opt/microchip/xc8/v1.12/include/pic18f26k22.h"
  1698                           SSP2BUF equ 0F6Fh ;# 
  1699                           # 4224 "/opt/microchip/xc8/v1.12/include/pic18f26k22.h"
  1700                           BAUDCON2 equ 0F70h ;# 
  1701                           # 4229 "/opt/microchip/xc8/v1.12/include/pic18f26k22.h"
  1702                           BAUD2CON equ 0F70h ;# 
  1703                           # 4531 "/opt/microchip/xc8/v1.12/include/pic18f26k22.h"
  1704                           RCSTA2 equ 0F71h ;# 
  1705                           # 4536 "/opt/microchip/xc8/v1.12/include/pic18f26k22.h"
  1706                           RC2STA equ 0F71h ;# 
  1707                           # 4822 "/opt/microchip/xc8/v1.12/include/pic18f26k22.h"
  1708                           TXSTA2 equ 0F72h ;# 
  1709                           # 4827 "/opt/microchip/xc8/v1.12/include/pic18f26k22.h"
  1710                           TX2STA equ 0F72h ;# 
  1711                           # 5077 "/opt/microchip/xc8/v1.12/include/pic18f26k22.h"
  1712                           TXREG2 equ 0F73h ;# 
  1713                           # 5082 "/opt/microchip/xc8/v1.12/include/pic18f26k22.h"
  1714                           TX2REG equ 0F73h ;# 
  1715                           # 5114 "/opt/microchip/xc8/v1.12/include/pic18f26k22.h"
  1716                           RCREG2 equ 0F74h ;# 
  1717                           # 5119 "/opt/microchip/xc8/v1.12/include/pic18f26k22.h"
  1718                           RC2REG equ 0F74h ;# 
  1719                           # 5151 "/opt/microchip/xc8/v1.12/include/pic18f26k22.h"
  1720                           SPBRG2 equ 0F75h ;# 
  1721                           # 5156 "/opt/microchip/xc8/v1.12/include/pic18f26k22.h"
  1722                           SP2BRG equ 0F75h ;# 
  1723                           # 5188 "/opt/microchip/xc8/v1.12/include/pic18f26k22.h"
  1724                           SPBRGH2 equ 0F76h ;# 
  1725                           # 5193 "/opt/microchip/xc8/v1.12/include/pic18f26k22.h"
  1726                           SP2BRGH equ 0F76h ;# 
  1727                           # 5225 "/opt/microchip/xc8/v1.12/include/pic18f26k22.h"
  1728                           CM2CON1 equ 0F77h ;# 
  1729                           # 5230 "/opt/microchip/xc8/v1.12/include/pic18f26k22.h"
  1730                           CM12CON equ 0F77h ;# 
  1731                           # 5346 "/opt/microchip/xc8/v1.12/include/pic18f26k22.h"
  1732                           CM2CON0 equ 0F78h ;# 
  1733                           # 5351 "/opt/microchip/xc8/v1.12/include/pic18f26k22.h"
  1734                           CM2CON equ 0F78h ;# 
  1735                           # 5625 "/opt/microchip/xc8/v1.12/include/pic18f26k22.h"
  1736                           CM1CON0 equ 0F79h ;# 
  1737                           # 5630 "/opt/microchip/xc8/v1.12/include/pic18f26k22.h"
  1738                           CM1CON equ 0F79h ;# 
  1739                           # 6046 "/opt/microchip/xc8/v1.12/include/pic18f26k22.h"
  1740                           PIE4 equ 0F7Ah ;# 
  1741                           # 6077 "/opt/microchip/xc8/v1.12/include/pic18f26k22.h"
  1742                           PIR4 equ 0F7Bh ;# 
  1743                           # 6108 "/opt/microchip/xc8/v1.12/include/pic18f26k22.h"
  1744                           IPR4 equ 0F7Ch ;# 
  1745                           # 6147 "/opt/microchip/xc8/v1.12/include/pic18f26k22.h"
  1746                           PIE5 equ 0F7Dh ;# 
  1747                           # 6178 "/opt/microchip/xc8/v1.12/include/pic18f26k22.h"
  1748                           PIR5 equ 0F7Eh ;# 
  1749                           # 6209 "/opt/microchip/xc8/v1.12/include/pic18f26k22.h"
  1750                           IPR5 equ 0F7Fh ;# 
  1751                           # 6257 "/opt/microchip/xc8/v1.12/include/pic18f26k22.h"
  1752                           PORTA equ 0F80h ;# 
  1753                           # 6549 "/opt/microchip/xc8/v1.12/include/pic18f26k22.h"
  1754                           PORTB equ 0F81h ;# 
  1755                           # 6921 "/opt/microchip/xc8/v1.12/include/pic18f26k22.h"
  1756                           PORTC equ 0F82h ;# 
  1757                           # 7254 "/opt/microchip/xc8/v1.12/include/pic18f26k22.h"
  1758                           PORTE equ 0F84h ;# 
  1759                           # 7523 "/opt/microchip/xc8/v1.12/include/pic18f26k22.h"
  1760                           LATA equ 0F89h ;# 
  1761                           # 7655 "/opt/microchip/xc8/v1.12/include/pic18f26k22.h"
  1762                           LATB equ 0F8Ah ;# 
  1763                           # 7787 "/opt/microchip/xc8/v1.12/include/pic18f26k22.h"
  1764                           LATC equ 0F8Bh ;# 
  1765                           # 7919 "/opt/microchip/xc8/v1.12/include/pic18f26k22.h"
  1766                           TRISA equ 0F92h ;# 
  1767                           # 7924 "/opt/microchip/xc8/v1.12/include/pic18f26k22.h"
  1768                           DDRA equ 0F92h ;# 
  1769                           # 8140 "/opt/microchip/xc8/v1.12/include/pic18f26k22.h"
  1770                           TRISB equ 0F93h ;# 
  1771                           # 8145 "/opt/microchip/xc8/v1.12/include/pic18f26k22.h"
  1772                           DDRB equ 0F93h ;# 
  1773                           # 8361 "/opt/microchip/xc8/v1.12/include/pic18f26k22.h"
  1774                           TRISC equ 0F94h ;# 
  1775                           # 8366 "/opt/microchip/xc8/v1.12/include/pic18f26k22.h"
  1776                           DDRC equ 0F94h ;# 
  1777                           # 8582 "/opt/microchip/xc8/v1.12/include/pic18f26k22.h"
  1778                           TRISE equ 0F96h ;# 
  1779                           # 8602 "/opt/microchip/xc8/v1.12/include/pic18f26k22.h"
  1780                           OSCTUNE equ 0F9Bh ;# 
  1781                           # 8671 "/opt/microchip/xc8/v1.12/include/pic18f26k22.h"
  1782                           HLVDCON equ 0F9Ch ;# 
  1783                           # 8676 "/opt/microchip/xc8/v1.12/include/pic18f26k22.h"
  1784                           LVDCON equ 0F9Ch ;# 
  1785                           # 8950 "/opt/microchip/xc8/v1.12/include/pic18f26k22.h"
  1786                           PIE1 equ 0F9Dh ;# 
  1787                           # 9026 "/opt/microchip/xc8/v1.12/include/pic18f26k22.h"
  1788                           PIR1 equ 0F9Eh ;# 
  1789                           # 9102 "/opt/microchip/xc8/v1.12/include/pic18f26k22.h"
  1790                           IPR1 equ 0F9Fh ;# 
  1791                           # 9178 "/opt/microchip/xc8/v1.12/include/pic18f26k22.h"
  1792  000404                     __ptext0:
  1793                           opt subtitle "HI-TECH Software Omniscient Code Generator (Lite mode) build 49521"
  1794                           
  1795                           opt pagewidth 120
  1796                           
  1797  0000                     	__size_of_main	equ	__end_of_main-_main
  1798                           opt subtitle "HI-TECH Software Omniscient Code Generator (Lite mode) build 49521"
  1799  000404                     _main:; BSR set to: 15
  1800                           opt subtitle "HI-TECH Software Omniscient Code Generator (Lite mode) build 49521"
  1801                           
  1802                           opt pagewidth 120
  1803                           
  1804  000404                     l1000:
  1805                           opt subtitle "HI-TECH Software Omniscient Code Generator (Lite mode) build 49521"
  1806  000404  EC16  F003         	call	_SETUP_clock	;wreg free
  1807                           opt subtitle "HI-TECH Software Omniscient Code Generator (Lite mode) build 49521"
  1808                           
  1809  000408                     l1002:
  1810                           opt subtitle "HI-TECH Software Omniscient Code Generator (Lite mode) build 49521"
  1811  000408  ECFA  F002         	call	_SETUP_io	;wreg free
  1812                           opt subtitle "HI-TECH Software Omniscient Code Generator (Lite mode) build 49521"
  1813                           
  1814  00040C                     l1004:
  1815                           opt subtitle "HI-TECH Software Omniscient Code Generator (Lite mode) build 49521"
  1816  00040C  EC09  F003         	call	_SETUP_i2c	;wreg free
  1817                           opt subtitle "HI-TECH Software Omniscient Code Generator (Lite mode) build 49521"
  1818                           
  1819  000410  ECC2  F002         	call	_SETUP_PWM	;wreg free
  1820                           opt subtitle "HI-TECH Software Omniscient Code Generator (Lite mode) build 49521"
  1821                           
  1822  000414                     l1006:
  1823                           opt subtitle "HI-TECH Software Omniscient Code Generator (Lite mode) build 49521"
  1824  000414  9292               	bcf	((c:3986)),c,1	;volatile
  1825                           opt subtitle "HI-TECH Software Omniscient Code Generator (Lite mode) build 49521"
  1826                           
  1827  000416                     l1008:
  1828                           opt subtitle "HI-TECH Software Omniscient Code Generator (Lite mode) build 49521"
  1829  000416  8EF2               	bsf	((c:4082)),c,7	;volatile
  1830                           opt subtitle "HI-TECH Software Omniscient Code Generator (Lite mode) build 49521"
  1831                           
  1832  000418                     l1010:
  1833                           opt subtitle "HI-TECH Software Omniscient Code Generator (Lite mode) build 49521"
  1834  000418  EC2E  F003         	call	_SETUP_swI2C_intOn	;wreg free
  1835                           opt subtitle "HI-TECH Software Omniscient Code Generator (Lite mode) build 49521"
  1836                           
  1837  00041C                     l1012:
  1838                           opt subtitle "HI-TECH Software Omniscient Code Generator (Lite mode) build 49521"
  1839  00041C  848A               	bsf	((c:3978)),c,2	;volatile
  1840                           opt subtitle "HI-TECH Software Omniscient Code Generator (Lite mode) build 49521"
  1841                           
  1842  00041E  0E00               	movlw	low(0)
  1843  000420  6E38               	movwf	((c:main@i)),c
  1844  000422  0E00               	movlw	high(0)
  1845  000424  6E39               	movwf	((c:main@i+1)),c
  1846  000426  0E00               	movlw	low highword(0)
  1847  000428  6E3A               	movwf	((c:main@i+2)),c
  1848  00042A  0E00               	movlw	high highword(0)
  1849  00042C  6E3B               	movwf	((c:main@i+3)),c
  1850                           opt subtitle "HI-TECH Software Omniscient Code Generator (Lite mode) build 49521"
  1851                           
  1852                           opt pagewidth 120
  1853  00042E                     l194:
  1854                           opt subtitle "HI-TECH Software Omniscient Code Generator (Lite mode) build 49521"
  1855                           
  1856                           opt pagewidth 120
  1857  00042E  0E00               	movlw	low(0)
  1858  000430  6E38               	movwf	((c:main@i)),c
  1859  000432  0E00               	movlw	high(0)
  1860  000434  6E39               	movwf	((c:main@i+1)),c
  1861  000436  0E00               	movlw	low highword(0)
  1862  000438  6E3A               	movwf	((c:main@i+2)),c
  1863  00043A  0E00               	movlw	high highword(0)
  1864  00043C  6E3B               	movwf	((c:main@i+3)),c
  1865                           opt subtitle "HI-TECH Software Omniscient Code Generator (Lite mode) build 49521"
  1866  00043E                     l1014:
  1867  00043E  503B               	movf	((c:main@i+3)),c,w
  1868  000440  0A80               	xorlw	80h
  1869  000442  0F80               	addlw	-(0)^80h
  1870                           opt subtitle "HI-TECH Software Omniscient Code Generator (Lite mode) build 49521"
  1871  000444  E108               	bnz	u15
  1872  000446  0E00               	movlw	0
  1873  000448  5C3A               	subwf	((c:main@i+2)),c,w
  1874  00044A  E105               	bnz	u15
  1875  00044C  0E02               	movlw	02h
  1876  00044E  5C39               	subwf	((c:main@i+1)),c,w
  1877  000450  E102               	bnz	u15
  1878  000452  0EBC               	movlw	0BCh
  1879  000454  5C38               	subwf	((c:main@i)),c,w
  1880  000456                     u15:
  1881                           opt subtitle "HI-TECH Software Omniscient Code Generator (Lite mode) build 49521"
  1882  000456  A0D8               	btfss	status,0
  1883  000458  D001               	goto	u11
  1884  00045A  D001               	goto	u10
  1885  00045C                     u11:
  1886  00045C  D002               	goto	l1018
  1887  00045E                     u10:
  1888  00045E  D01A               	goto	l1020
  1889                           opt subtitle "HI-TECH Software Omniscient Code Generator (Lite mode) build 49521"
  1890  000460                     l1016:
  1891  000460  D019               	goto	l1020
  1892                           opt subtitle "HI-TECH Software Omniscient Code Generator (Lite mode) build 49521"
  1893  000462                     l195:
  1894                           opt subtitle "HI-TECH Software Omniscient Code Generator (Lite mode) build 49521"
  1895  000462                     l1018:
  1896  000462  0E01               	movlw	01h
  1897  000464  2638               	addwf	((c:main@i)),c
  1898  000466  0E00               	movlw	0
  1899  000468  2239               	addwfc	((c:main@i+1)),c
  1900  00046A  0E00               	movlw	0
  1901  00046C  223A               	addwfc	((c:main@i+2)),c
  1902  00046E  0E00               	movlw	0
  1903  000470  223B               	addwfc	((c:main@i+3)),c
  1904  000472  503B               	movf	((c:main@i+3)),c,w
  1905  000474  0A80               	xorlw	80h
  1906  000476  0F80               	addlw	-(0)^80h
  1907                           opt subtitle "HI-TECH Software Omniscient Code Generator (Lite mode) build 49521"
  1908  000478  E108               	bnz	u25
  1909  00047A  0E00               	movlw	0
  1910  00047C  5C3A               	subwf	((c:main@i+2)),c,w
  1911  00047E  E105               	bnz	u25
  1912  000480  0E02               	movlw	02h
  1913  000482  5C39               	subwf	((c:main@i+1)),c,w
  1914  000484  E102               	bnz	u25
  1915  000486  0EBC               	movlw	0BCh
  1916  000488  5C38               	subwf	((c:main@i)),c,w
  1917  00048A                     u25:
  1918                           opt subtitle "HI-TECH Software Omniscient Code Generator (Lite mode) build 49521"
  1919  00048A  A0D8               	btfss	status,0
  1920  00048C  D001               	goto	u21
  1921  00048E  D001               	goto	u20
  1922  000490                     u21:
  1923  000490  D7E8               	goto	l1018
  1924  000492                     u20:
  1925  000492  D000               	goto	l1020
  1926                           opt subtitle "HI-TECH Software Omniscient Code Generator (Lite mode) build 49521"
  1927  000494                     l196:
  1928                           opt subtitle "HI-TECH Software Omniscient Code Generator (Lite mode) build 49521"
  1929                           
  1930  000494                     l1020:
  1931                           opt subtitle "HI-TECH Software Omniscient Code Generator (Lite mode) build 49521"
  1932  000494  0E01               	movlw	01h
  1933  000496  2601               	addwf	((c:_kickAutoCount)),c	;volatile
  1934  000498  0E00               	movlw	0
  1935  00049A  2202               	addwfc	((c:_kickAutoCount+1)),c	;volatile
  1936  00049C  0E00               	movlw	0
  1937  00049E  2203               	addwfc	((c:_kickAutoCount+2)),c	;volatile
  1938  0004A0  0E00               	movlw	0
  1939  0004A2  2204               	addwfc	((c:_kickAutoCount+3)),c	;volatile
  1940  0004A4  0E66               	movlw	low(066h)
  1941  0004A6  5C01               	subwf	((c:_kickAutoCount))&0ffh,w	;volatile
  1942  0004A8  0E00               	movlw	high(066h)
  1943  0004AA  5802               	subwfb	((c:_kickAutoCount+1))&0ffh,w	;volatile
  1944  0004AC  0E00               	movlw	low highword(066h)
  1945  0004AE  5803               	subwfb	((c:_kickAutoCount+2))&0ffh,w	;volatile
  1946  0004B0  0E00               	movlw	high highword(066h)
  1947  0004B2  5804               	subwfb	((c:_kickAutoCount+3))&0ffh,w	;volatile
  1948  0004B4  A0D8               	btfss	status,0
  1949  0004B6  D001               	goto	u31
  1950  0004B8  D001               	goto	u30
  1951  0004BA                     u31:
  1952  0004BA  D001               	goto	l197
  1953  0004BC                     u30:
  1954                           opt subtitle "HI-TECH Software Omniscient Code Generator (Lite mode) build 49521"
  1955                           
  1956  0004BC                     l1022:
  1957                           opt subtitle "HI-TECH Software Omniscient Code Generator (Lite mode) build 49521"
  1958  0004BC  848A               	bsf	((c:3978)),c,2	;volatile
  1959                           opt subtitle "HI-TECH Software Omniscient Code Generator (Lite mode) build 49521"
  1960                           
  1961  0004BE                     l197:
  1962                           opt subtitle "HI-TECH Software Omniscient Code Generator (Lite mode) build 49521"
  1963                           
  1964  0004BE  0004               clrwdt ;# 
  1965                           opt subtitle "HI-TECH Software Omniscient Code Generator (Lite mode) build 49521"
  1966  0004C0  D7B6               	goto	l194
  1967                           opt subtitle "HI-TECH Software Omniscient Code Generator (Lite mode) build 49521"
  1968                           
  1969  0004C2                     l198:
  1970                           opt subtitle "HI-TECH Software Omniscient Code Generator (Lite mode) build 49521"
  1971  0004C2  D7B5               	goto	l194
  1972                           opt subtitle "HI-TECH Software Omniscient Code Generator (Lite mode) build 49521"
  1973  0004C4                     l199:
  1974                           opt subtitle "HI-TECH Software Omniscient Code Generator (Lite mode) build 49521"
  1975                           
  1976                           opt pagewidth 120
  1977                           
  1978                           	opt lm
  1979  0004C4                     l200:
  1980                           opt subtitle "HI-TECH Software Omniscient Code Generator (Lite mode) build 49521"
  1981  0004C4  EF00  F002         	goto	start
  1982                           opt subtitle "HI-TECH Software Omniscient Code Generator (Lite mode) build 49521"
  1983                           
  1984  0004C8                     	__end_of_main:
  1985                           opt subtitle "HI-TECH Software Omniscient Code Generator (Lite mode) build 49521"
  1986                           
  1987                           opt pagewidth 120
  1988                           
  1989                           	opt lm
  1990                           
  1991                           	processor	18F26K22
  1992                           porta	equ	0F80h
  1993                           portb	equ	0F81h
  1994                           portc	equ	0F82h
  1995                           portd	equ	0F83h
  1996                           porte	equ	0F84h
  1997                           lata	equ	0F89h
  1998                           latb	equ	0F8Ah
  1999                           latc	equ	0F8Bh
  2000                           latd	equ	0F8Ch
  2001                           late	equ	0F8Dh
  2002                           trisa	equ	0F92h
  2003                           trisb	equ	0F93h
  2004                           trisc	equ	0F94h
  2005                           trisd	equ	0F95h
  2006                           trise	equ	0F96h
  2007                           pie1	equ	0F9Dh
  2008                           pir1	equ	0F9Eh
  2009                           ipr1	equ	0F9Fh
  2010                           pie2	equ	0FA0h
  2011                           pir2	equ	0FA1h
  2012                           ipr2	equ	0FA2h
  2013                           t3con	equ	0FB1h
  2014                           tmr3l	equ	0FB2h
  2015                           tmr3h	equ	0FB3h
  2016                           ccp1con	equ	0FBDh
  2017                           ccpr1l	equ	0FBEh
  2018                           ccpr1h	equ	0FBFh
  2019  00062C                     __ptext1:
  2020                           opt subtitle "HI-TECH Software Omniscient Code Generator (Lite mode) build 49521"
  2021                           
  2022                           opt pagewidth 120
  2023                           
  2024  0000                     	__size_of_SETUP_clock	equ	__end_of_SETUP_clock-_SETUP_clock
  2025                           opt subtitle "HI-TECH Software Omniscient Code Generator (Lite mode) build 49521"
  2026  00062C                     _SETUP_clock:
  2027                           opt subtitle "HI-TECH Software Omniscient Code Generator (Lite mode) build 49521"
  2028                           
  2029                           opt pagewidth 120
  2030  00062C                     l940:
  2031                           opt subtitle "HI-TECH Software Omniscient Code Generator (Lite mode) build 49521"
  2032  00062C  0EFC               	movlw	((0 & ((1<<2)-1))<<0)|not (((1<<2)-1)<<0)
  2033  00062E  16D3               	andwf	((c:4051)),c	;volatile
  2034                           opt subtitle "HI-TECH Software Omniscient Code Generator (Lite mode) build 49521"
  2035                           
  2036  000630                     l942:
  2037                           opt subtitle "HI-TECH Software Omniscient Code Generator (Lite mode) build 49521"
  2038  000630  88D3               		bsf	((c:4051)),c, 4+0	;volatile
  2039  000632  8AD3               	bsf	((c:4051)),c, 4+1	;volatile
  2040  000634  8CD3               	bsf	((c:4051)),c, 4+2	;volatile
  2041                           opt subtitle "HI-TECH Software Omniscient Code Generator (Lite mode) build 49521"
  2042                           
  2043                           opt pagewidth 120
  2044  000636                     l944:
  2045                           opt subtitle "HI-TECH Software Omniscient Code Generator (Lite mode) build 49521"
  2046  000636  8C9B               	bsf	((c:3995)),c,6	;volatile
  2047                           opt subtitle "HI-TECH Software Omniscient Code Generator (Lite mode) build 49521"
  2048                           
  2049  000638                     l71:
  2050  000638  0012               	return
  2051                           opt subtitle "HI-TECH Software Omniscient Code Generator (Lite mode) build 49521"
  2052                           
  2053  00063A                     	__end_of_SETUP_clock:
  2054                           opt subtitle "HI-TECH Software Omniscient Code Generator (Lite mode) build 49521"
  2055                           
  2056                           opt pagewidth 120
  2057                           
  2058                           	opt lm
  2059                           
  2060                           	processor	18F26K22
  2061                           porta	equ	0F80h
  2062                           portb	equ	0F81h
  2063                           portc	equ	0F82h
  2064                           portd	equ	0F83h
  2065                           porte	equ	0F84h
  2066                           lata	equ	0F89h
  2067                           latb	equ	0F8Ah
  2068                           latc	equ	0F8Bh
  2069                           latd	equ	0F8Ch
  2070                           late	equ	0F8Dh
  2071                           trisa	equ	0F92h
  2072                           trisb	equ	0F93h
  2073                           trisc	equ	0F94h
  2074                           trisd	equ	0F95h
  2075                           trise	equ	0F96h
  2076                           pie1	equ	0F9Dh
  2077                           pir1	equ	0F9Eh
  2078                           ipr1	equ	0F9Fh
  2079                           pie2	equ	0FA0h
  2080                           pir2	equ	0FA1h
  2081                           ipr2	equ	0FA2h
  2082                           t3con	equ	0FB1h
  2083                           tmr3l	equ	0FB2h
  2084                           tmr3h	equ	0FB3h
  2085                           ccp1con	equ	0FBDh
  2086                           ccpr1l	equ	0FBEh
  2087                           ccpr1h	equ	0FBFh
  2088  0005F4                     __ptext2:
  2089                           opt subtitle "HI-TECH Software Omniscient Code Generator (Lite mode) build 49521"
  2090                           
  2091                           opt pagewidth 120
  2092                           
  2093  0000                     	__size_of_SETUP_io	equ	__end_of_SETUP_io-_SETUP_io
  2094                           opt subtitle "HI-TECH Software Omniscient Code Generator (Lite mode) build 49521"
  2095  0005F4                     _SETUP_io:
  2096                           opt subtitle "HI-TECH Software Omniscient Code Generator (Lite mode) build 49521"
  2097                           
  2098                           opt pagewidth 120
  2099  0005F4                     l946:
  2100                           opt subtitle "HI-TECH Software Omniscient Code Generator (Lite mode) build 49521"
  2101  0005F4  0EC7               	movlw	(0C7h)&0ffh
  2102  0005F6  010F               	movlb	15	; () banked
  2103  0005F8  010F               	movlb	15	; () banked
  2104  0005FA  173A               	andwf	((3898))&0ffh	;volatile
  2105                           opt subtitle "HI-TECH Software Omniscient Code Generator (Lite mode) build 49521"
  2106                           
  2107  0005FC                     l948:; BSR set to: 15
  2108                           opt subtitle "HI-TECH Software Omniscient Code Generator (Lite mode) build 49521"
  2109                           
  2110  0005FC  010F               	movlb	15	; () banked
  2111  0005FE  010F               	movlb	15	; () banked
  2112  000600  9B39               	bcf	(0+(5/8)+(3897))&0ffh,(5)&7	;volatile
  2113                           opt subtitle "HI-TECH Software Omniscient Code Generator (Lite mode) build 49521"
  2114                           
  2115  000602                     l950:; BSR set to: 15
  2116                           opt subtitle "HI-TECH Software Omniscient Code Generator (Lite mode) build 49521"
  2117                           
  2118  000602  9093               	bcf	((c:3987)),c,0	;volatile
  2119                           opt subtitle "HI-TECH Software Omniscient Code Generator (Lite mode) build 49521"
  2120                           
  2121  000604                     l952:; BSR set to: 15
  2122                           opt subtitle "HI-TECH Software Omniscient Code Generator (Lite mode) build 49521"
  2123                           
  2124  000604  9693               	bcf	((c:3987)),c,3	;volatile
  2125                           opt subtitle "HI-TECH Software Omniscient Code Generator (Lite mode) build 49521"
  2126                           
  2127  000606                     l954:; BSR set to: 15
  2128                           opt subtitle "HI-TECH Software Omniscient Code Generator (Lite mode) build 49521"
  2129                           
  2130  000606  9893               	bcf	((c:3987)),c,4	;volatile
  2131                           opt subtitle "HI-TECH Software Omniscient Code Generator (Lite mode) build 49521"
  2132                           
  2133  000608                     l956:; BSR set to: 15
  2134                           opt subtitle "HI-TECH Software Omniscient Code Generator (Lite mode) build 49521"
  2135                           
  2136  000608  9A93               	bcf	((c:3987)),c,5	;volatile
  2137                           opt subtitle "HI-TECH Software Omniscient Code Generator (Lite mode) build 49521"
  2138                           
  2139  00060A                     l958:; BSR set to: 15
  2140                           opt subtitle "HI-TECH Software Omniscient Code Generator (Lite mode) build 49521"
  2141                           
  2142  00060A  9494               	bcf	((c:3988)),c,2	;volatile
  2143                           opt subtitle "HI-TECH Software Omniscient Code Generator (Lite mode) build 49521"
  2144                           
  2145  00060C                     l960:; BSR set to: 15
  2146                           opt subtitle "HI-TECH Software Omniscient Code Generator (Lite mode) build 49521"
  2147                           
  2148  00060C  9892               	bcf	((c:3986)),c,4	;volatile
  2149                           opt subtitle "HI-TECH Software Omniscient Code Generator (Lite mode) build 49521"
  2150                           
  2151  00060E                     l962:; BSR set to: 15
  2152                           opt subtitle "HI-TECH Software Omniscient Code Generator (Lite mode) build 49521"
  2153                           
  2154  00060E  9493               	bcf	((c:3987)),c,2	;volatile
  2155                           opt subtitle "HI-TECH Software Omniscient Code Generator (Lite mode) build 49521"
  2156                           
  2157  000610                     l74:; BSR set to: 15
  2158                           opt subtitle "HI-TECH Software Omniscient Code Generator (Lite mode) build 49521"
  2159  000610  0012               	return
  2160                           opt subtitle "HI-TECH Software Omniscient Code Generator (Lite mode) build 49521"
  2161                           
  2162  000612                     	__end_of_SETUP_io:
  2163                           opt subtitle "HI-TECH Software Omniscient Code Generator (Lite mode) build 49521"
  2164                           
  2165                           opt pagewidth 120
  2166                           
  2167                           	opt lm
  2168                           
  2169                           	processor	18F26K22
  2170                           porta	equ	0F80h
  2171                           portb	equ	0F81h
  2172                           portc	equ	0F82h
  2173                           portd	equ	0F83h
  2174                           porte	equ	0F84h
  2175                           lata	equ	0F89h
  2176                           latb	equ	0F8Ah
  2177                           latc	equ	0F8Bh
  2178                           latd	equ	0F8Ch
  2179                           late	equ	0F8Dh
  2180                           trisa	equ	0F92h
  2181                           trisb	equ	0F93h
  2182                           trisc	equ	0F94h
  2183                           trisd	equ	0F95h
  2184                           trise	equ	0F96h
  2185                           pie1	equ	0F9Dh
  2186                           pir1	equ	0F9Eh
  2187                           ipr1	equ	0F9Fh
  2188                           pie2	equ	0FA0h
  2189                           pir2	equ	0FA1h
  2190                           ipr2	equ	0FA2h
  2191                           t3con	equ	0FB1h
  2192                           tmr3l	equ	0FB2h
  2193                           tmr3h	equ	0FB3h
  2194                           ccp1con	equ	0FBDh
  2195                           ccpr1l	equ	0FBEh
  2196                           ccpr1h	equ	0FBFh
  2197  000612                     __ptext3:
  2198                           opt subtitle "HI-TECH Software Omniscient Code Generator (Lite mode) build 49521"
  2199                           
  2200                           opt pagewidth 120
  2201                           
  2202  0000                     	__size_of_SETUP_i2c	equ	__end_of_SETUP_i2c-_SETUP_i2c
  2203                           opt subtitle "HI-TECH Software Omniscient Code Generator (Lite mode) build 49521"
  2204  000612                     _SETUP_i2c:; BSR set to: 15
  2205                           opt subtitle "HI-TECH Software Omniscient Code Generator (Lite mode) build 49521"
  2206                           
  2207                           opt pagewidth 120
  2208                           
  2209  000612                     l964:
  2210                           opt subtitle "HI-TECH Software Omniscient Code Generator (Lite mode) build 49521"
  2211  000612  0E18               	movlw	(018h)&0ffh
  2212  000614  1294               	iorwf	((c:3988)),c	;volatile
  2213                           opt subtitle "HI-TECH Software Omniscient Code Generator (Lite mode) build 49521"
  2214                           
  2215  000616                     l966:
  2216                           opt subtitle "HI-TECH Software Omniscient Code Generator (Lite mode) build 49521"
  2217  000616  0E94               	movlw	low(094h)
  2218  000618  6EC8               	movwf	((c:4040)),c	;volatile
  2219                           opt subtitle "HI-TECH Software Omniscient Code Generator (Lite mode) build 49521"
  2220                           
  2221  00061A                     l968:
  2222                           opt subtitle "HI-TECH Software Omniscient Code Generator (Lite mode) build 49521"
  2223  00061A  8AC6               	bsf	((c:4038)),c,5	;volatile
  2224                           opt subtitle "HI-TECH Software Omniscient Code Generator (Lite mode) build 49521"
  2225                           
  2226  00061C                     l970:
  2227                           opt subtitle "HI-TECH Software Omniscient Code Generator (Lite mode) build 49521"
  2228  00061C  50C6               	movf	((c:4038)),c,w	;volatile
  2229  00061E  0BF0               	andlw	not (((1<<4)-1)<<0)
  2230  000620  0906               	iorlw	(06h & ((1<<4)-1))<<0
  2231  000622  6EC6               	movwf	((c:4038)),c	;volatile
  2232                           opt subtitle "HI-TECH Software Omniscient Code Generator (Lite mode) build 49521"
  2233                           
  2234  000624                     l972:
  2235                           opt subtitle "HI-TECH Software Omniscient Code Generator (Lite mode) build 49521"
  2236  000624  80C5               	bsf	((c:4037)),c,0	;volatile
  2237                           opt subtitle "HI-TECH Software Omniscient Code Generator (Lite mode) build 49521"
  2238                           
  2239  000626                     l974:
  2240                           opt subtitle "HI-TECH Software Omniscient Code Generator (Lite mode) build 49521"
  2241  000626  8ED0               	bsf	((c:4048)),c,7	;volatile
  2242                           opt subtitle "HI-TECH Software Omniscient Code Generator (Lite mode) build 49521"
  2243                           
  2244  000628                     l976:
  2245                           opt subtitle "HI-TECH Software Omniscient Code Generator (Lite mode) build 49521"
  2246  000628  969D               	bcf	((c:3997)),c,3	;volatile
  2247                           opt subtitle "HI-TECH Software Omniscient Code Generator (Lite mode) build 49521"
  2248                           
  2249  00062A                     l77:
  2250  00062A  0012               	return
  2251                           opt subtitle "HI-TECH Software Omniscient Code Generator (Lite mode) build 49521"
  2252                           
  2253  00062C                     	__end_of_SETUP_i2c:
  2254                           opt subtitle "HI-TECH Software Omniscient Code Generator (Lite mode) build 49521"
  2255                           
  2256                           opt pagewidth 120
  2257                           
  2258                           	opt lm
  2259                           
  2260                           	processor	18F26K22
  2261                           porta	equ	0F80h
  2262                           portb	equ	0F81h
  2263                           portc	equ	0F82h
  2264                           portd	equ	0F83h
  2265                           porte	equ	0F84h
  2266                           lata	equ	0F89h
  2267                           latb	equ	0F8Ah
  2268                           latc	equ	0F8Bh
  2269                           latd	equ	0F8Ch
  2270                           late	equ	0F8Dh
  2271                           trisa	equ	0F92h
  2272                           trisb	equ	0F93h
  2273                           trisc	equ	0F94h
  2274                           trisd	equ	0F95h
  2275                           trise	equ	0F96h
  2276                           pie1	equ	0F9Dh
  2277                           pir1	equ	0F9Eh
  2278                           ipr1	equ	0F9Fh
  2279                           pie2	equ	0FA0h
  2280                           pir2	equ	0FA1h
  2281                           ipr2	equ	0FA2h
  2282                           t3con	equ	0FB1h
  2283                           tmr3l	equ	0FB2h
  2284                           tmr3h	equ	0FB3h
  2285                           ccp1con	equ	0FBDh
  2286                           ccpr1l	equ	0FBEh
  2287                           ccpr1h	equ	0FBFh
  2288  00065C                     __ptext4:
  2289                           opt subtitle "HI-TECH Software Omniscient Code Generator (Lite mode) build 49521"
  2290                           
  2291                           opt pagewidth 120
  2292                           
  2293  0000                     	__size_of_SETUP_swI2C_intOn	equ	__end_of_SETUP_swI2C_intOn-_SETUP_swI2C_intOn
  2294                           opt subtitle "HI-TECH Software Omniscient Code Generator (Lite mode) build 49521"
  2295  00065C                     _SETUP_swI2C_intOn:
  2296                           opt subtitle "HI-TECH Software Omniscient Code Generator (Lite mode) build 49521"
  2297                           
  2298                           opt pagewidth 120
  2299  00065C                     l978:
  2300                           opt subtitle "HI-TECH Software Omniscient Code Generator (Lite mode) build 49521"
  2301  00065C  969E               	bcf	((c:3998)),c,3	;volatile
  2302                           opt subtitle "HI-TECH Software Omniscient Code Generator (Lite mode) build 49521"
  2303                           
  2304  00065E  869D               	bsf	((c:3997)),c,3	;volatile
  2305                           opt subtitle "HI-TECH Software Omniscient Code Generator (Lite mode) build 49521"
  2306                           
  2307  000660                     l80:
  2308  000660  0012               	return
  2309                           opt subtitle "HI-TECH Software Omniscient Code Generator (Lite mode) build 49521"
  2310                           
  2311  000662                     	__end_of_SETUP_swI2C_intOn:
  2312                           opt subtitle "HI-TECH Software Omniscient Code Generator (Lite mode) build 49521"
  2313                           
  2314                           opt pagewidth 120
  2315                           
  2316                           	opt lm
  2317                           
  2318                           	processor	18F26K22
  2319                           porta	equ	0F80h
  2320                           portb	equ	0F81h
  2321                           portc	equ	0F82h
  2322                           portd	equ	0F83h
  2323                           porte	equ	0F84h
  2324                           lata	equ	0F89h
  2325                           latb	equ	0F8Ah
  2326                           latc	equ	0F8Bh
  2327                           latd	equ	0F8Ch
  2328                           late	equ	0F8Dh
  2329                           trisa	equ	0F92h
  2330                           trisb	equ	0F93h
  2331                           trisc	equ	0F94h
  2332                           trisd	equ	0F95h
  2333                           trise	equ	0F96h
  2334                           pie1	equ	0F9Dh
  2335                           pir1	equ	0F9Eh
  2336                           ipr1	equ	0F9Fh
  2337                           pie2	equ	0FA0h
  2338                           pir2	equ	0FA1h
  2339                           ipr2	equ	0FA2h
  2340                           t3con	equ	0FB1h
  2341                           tmr3l	equ	0FB2h
  2342                           tmr3h	equ	0FB3h
  2343                           ccp1con	equ	0FBDh
  2344                           ccpr1l	equ	0FBEh
  2345                           ccpr1h	equ	0FBFh
  2346  000584                     __ptext5:
  2347                           opt subtitle "HI-TECH Software Omniscient Code Generator (Lite mode) build 49521"
  2348                           
  2349                           opt pagewidth 120
  2350                           
  2351  0000                     	__size_of_SETUP_PWM	equ	__end_of_SETUP_PWM-_SETUP_PWM
  2352                           opt subtitle "HI-TECH Software Omniscient Code Generator (Lite mode) build 49521"
  2353  000584                     _SETUP_PWM:
  2354                           opt subtitle "HI-TECH Software Omniscient Code Generator (Lite mode) build 49521"
  2355                           
  2356                           opt pagewidth 120
  2357  000584                     l996:
  2358                           opt subtitle "HI-TECH Software Omniscient Code Generator (Lite mode) build 49521"
  2359  000584  8AF2               	bsf	((c:4082)),c,5	;volatile
  2360                           opt subtitle "HI-TECH Software Omniscient Code Generator (Lite mode) build 49521"
  2361                           
  2362  000586  84F1               	bsf	((c:4081)),c,2	;volatile
  2363                           opt subtitle "HI-TECH Software Omniscient Code Generator (Lite mode) build 49521"
  2364                           
  2365  000588                     l998:
  2366                           opt subtitle "HI-TECH Software Omniscient Code Generator (Lite mode) build 49521"
  2367  000588  0E40               	movlw	low(040h)
  2368  00058A  6ED5               	movwf	((c:4053)),c	;volatile
  2369                           opt subtitle "HI-TECH Software Omniscient Code Generator (Lite mode) build 49521"
  2370                           
  2371  00058C  0E8A               	movlw	low(08Ah)
  2372  00058E  6ED6               	movwf	((c:4054)),c	;volatile
  2373                           opt subtitle "HI-TECH Software Omniscient Code Generator (Lite mode) build 49521"
  2374                           
  2375  000590  0E00               	movlw	high(03Dh)
  2376  000592  6E50               	movwf	((c:_ESC_PWM_REG+1)),c	;volatile
  2377  000594  0E3D               	movlw	low(03Dh)
  2378  000596  6E4F               	movwf	((c:_ESC_PWM_REG)),c	;volatile
  2379                           opt subtitle "HI-TECH Software Omniscient Code Generator (Lite mode) build 49521"
  2380                           
  2381  000598  0E00               	movlw	high(061h)
  2382  00059A  6E4A               	movwf	((c:_AIL_PWM_REG+1)),c	;volatile
  2383  00059C  0E61               	movlw	low(061h)
  2384  00059E  6E49               	movwf	((c:_AIL_PWM_REG)),c	;volatile
  2385                           opt subtitle "HI-TECH Software Omniscient Code Generator (Lite mode) build 49521"
  2386                           
  2387  0005A0  0E00               	movlw	high(061h)
  2388  0005A2  6E4E               	movwf	((c:_ELEV_PWM_REG+1)),c	;volatile
  2389  0005A4  0E61               	movlw	low(061h)
  2390  0005A6  6E4D               	movwf	((c:_ELEV_PWM_REG)),c	;volatile
  2391                           opt subtitle "HI-TECH Software Omniscient Code Generator (Lite mode) build 49521"
  2392                           
  2393  0005A8  0E00               	movlw	high(061h)
  2394  0005AA  6E54               	movwf	((c:_RUDD_PWM_REG+1)),c	;volatile
  2395  0005AC  0E61               	movlw	low(061h)
  2396  0005AE  6E53               	movwf	((c:_RUDD_PWM_REG)),c	;volatile
  2397                           opt subtitle "HI-TECH Software Omniscient Code Generator (Lite mode) build 49521"
  2398                           
  2399  0005B0  0E00               	movlw	high(061h)
  2400  0005B2  6E52               	movwf	((c:_GEAR_PWM_REG+1)),c	;volatile
  2401  0005B4  0E61               	movlw	low(061h)
  2402  0005B6  6E51               	movwf	((c:_GEAR_PWM_REG)),c	;volatile
  2403                           opt subtitle "HI-TECH Software Omniscient Code Generator (Lite mode) build 49521"
  2404                           
  2405  0005B8  0E00               	movlw	high(061h)
  2406  0005BA  6E4C               	movwf	((c:_AUX_PWM_REG+1)),c	;volatile
  2407  0005BC  0E61               	movlw	low(061h)
  2408  0005BE  6E4B               	movwf	((c:_AUX_PWM_REG)),c	;volatile
  2409                           opt subtitle "HI-TECH Software Omniscient Code Generator (Lite mode) build 49521"
  2410                           
  2411  0005C0                     l101:
  2412  0005C0  0012               	return
  2413                           opt subtitle "HI-TECH Software Omniscient Code Generator (Lite mode) build 49521"
  2414                           
  2415  0005C2                     	__end_of_SETUP_PWM:
  2416                           opt subtitle "HI-TECH Software Omniscient Code Generator (Lite mode) build 49521"
  2417                           
  2418                           opt pagewidth 120
  2419                           
  2420                           	opt lm
  2421                           
  2422                           	processor	18F26K22
  2423                           porta	equ	0F80h
  2424                           portb	equ	0F81h
  2425                           portc	equ	0F82h
  2426                           portd	equ	0F83h
  2427                           porte	equ	0F84h
  2428                           lata	equ	0F89h
  2429                           latb	equ	0F8Ah
  2430                           latc	equ	0F8Bh
  2431                           latd	equ	0F8Ch
  2432                           late	equ	0F8Dh
  2433                           trisa	equ	0F92h
  2434                           trisb	equ	0F93h
  2435                           trisc	equ	0F94h
  2436                           trisd	equ	0F95h
  2437                           trise	equ	0F96h
  2438                           pie1	equ	0F9Dh
  2439                           pir1	equ	0F9Eh
  2440                           ipr1	equ	0F9Fh
  2441                           pie2	equ	0FA0h
  2442                           pir2	equ	0FA1h
  2443                           ipr2	equ	0FA2h
  2444                           t3con	equ	0FB1h
  2445                           tmr3l	equ	0FB2h
  2446                           tmr3h	equ	0FB3h
  2447                           ccp1con	equ	0FBDh
  2448                           ccpr1l	equ	0FBEh
  2449                           ccpr1h	equ	0FBFh
  2450                           adcon1	equ	0FC1h
  2451                           adcon0	equ	0FC2h
  2452                           adresl	equ	0FC3h
  2453                           adresh	equ	0FC4h
  2454                           sspcon2	equ	0FC5h
  2455  000008                     __pintcode:
  2456                           opt subtitle "HI-TECH Software Omniscient Code Generator (Lite mode) build 49521"
  2457                           
  2458                           opt pagewidth 120
  2459                           
  2460  0000                     	__size_of_InterruptHandlerHigh	equ	__end_of_InterruptHandlerHigh-_InterruptHandlerHigh
  2461                           opt subtitle "HI-TECH Software Omniscient Code Generator (Lite mode) build 49521"
  2462  000008                     _InterruptHandlerHigh:
  2463                           opt subtitle "HI-TECH Software Omniscient Code Generator (Lite mode) build 49521"
  2464  000008  CFFA F029          	movff	pclat+0,??_InterruptHandlerHigh+1
  2465  00000C  CFFB F02A          	movff	pclat+1,??_InterruptHandlerHigh+2
  2466  000010  CFE9 F02B          	movff	fsr0l+0,??_InterruptHandlerHigh+3
  2467  000014  CFEA F02C          	movff	fsr0h+0,??_InterruptHandlerHigh+4
  2468  000018  CFE1 F02D          	movff	fsr1l+0,??_InterruptHandlerHigh+5
  2469  00001C  CFE2 F02E          	movff	fsr1h+0,??_InterruptHandlerHigh+6
  2470  000020  CFD9 F02F          	movff	fsr2l+0,??_InterruptHandlerHigh+7
  2471  000024  CFDA F030          	movff	fsr2h+0,??_InterruptHandlerHigh+8
  2472  000028  CFF3 F031          	movff	prodl+0,??_InterruptHandlerHigh+9
  2473  00002C  CFF4 F032          	movff	prodh+0,??_InterruptHandlerHigh+10
  2474  000030  CFF6 F033          	movff	tblptrl+0,??_InterruptHandlerHigh+11
  2475  000034  CFF7 F034          	movff	tblptrh+0,??_InterruptHandlerHigh+12
  2476  000038  CFF8 F035          	movff	tblptru+0,??_InterruptHandlerHigh+13
  2477  00003C  CFF5 F036          	movff	tablat+0,??_InterruptHandlerHigh+14
  2478                           opt subtitle "HI-TECH Software Omniscient Code Generator (Lite mode) build 49521"
  2479                           
  2480  000040                     i2l1072:
  2481                           opt subtitle "HI-TECH Software Omniscient Code Generator (Lite mode) build 49521"
  2482                           
  2483  000040  A69E               	btfss	((c:3998)),c,3	;volatile
  2484  000042  D001               	goto	i2u10_41
  2485  000044  D001               	goto	i2u10_40
  2486  000046                     i2u10_41:
  2487  000046  D137               	goto	i2l207
  2488  000048                     i2u10_40:
  2489                           opt subtitle "HI-TECH Software Omniscient Code Generator (Lite mode) build 49521"
  2490  000048                     i2l1074:
  2491                           opt subtitle "HI-TECH Software Omniscient Code Generator (Lite mode) build 49521"
  2492  000048  A69D               	btfss	((c:3997)),c,3	;volatile
  2493  00004A  D001               	goto	i2u11_41
  2494  00004C  D001               	goto	i2u11_40
  2495  00004E                     i2u11_41:
  2496  00004E  D133               	goto	i2l207
  2497  000050                     i2u11_40:
  2498                           opt subtitle "HI-TECH Software Omniscient Code Generator (Lite mode) build 49521"
  2499                           
  2500  000050                     i2l1076:
  2501                           opt subtitle "HI-TECH Software Omniscient Code Generator (Lite mode) build 49521"
  2502                           
  2503                           opt pagewidth 120
  2504  000050  969E               	bcf	((c:3998)),c,3	;volatile
  2505                           opt subtitle "HI-TECH Software Omniscient Code Generator (Lite mode) build 49521"
  2506                           
  2507                           opt pagewidth 120
  2508  000052  B4C7               	btfsc	((c:4039)),c,2	;volatile
  2509  000054  D001               	goto	i2u12_41
  2510  000056  D001               	goto	i2u12_40
  2511  000058                     i2u12_41:
  2512  000058  D012               	goto	i2l208
  2513  00005A                     i2u12_40:
  2514                           opt subtitle "HI-TECH Software Omniscient Code Generator (Lite mode) build 49521"
  2515  00005A                     i2l1078:
  2516                           opt subtitle "HI-TECH Software Omniscient Code Generator (Lite mode) build 49521"
  2517  00005A  BAC7               	btfsc	((c:4039)),c,5	;volatile
  2518  00005C  D001               	goto	i2u13_41
  2519  00005E  D001               	goto	i2u13_40
  2520  000060                     i2u13_41:
  2521  000060  D00E               	goto	i2l208
  2522  000062                     i2u13_40:
  2523                           opt subtitle "HI-TECH Software Omniscient Code Generator (Lite mode) build 49521"
  2524                           
  2525  000062                     i2l1080:
  2526                           opt subtitle "HI-TECH Software Omniscient Code Generator (Lite mode) build 49521"
  2527                           
  2528  000062  0E00               	movlw	low(0)
  2529  000064  6E13               	movwf	((c:_I2C_FSM)),c	;volatile
  2530                           opt subtitle "HI-TECH Software Omniscient Code Generator (Lite mode) build 49521"
  2531                           
  2532  000066                     i2l1082:
  2533                           opt subtitle "HI-TECH Software Omniscient Code Generator (Lite mode) build 49521"
  2534  000066  CFC9 F037          	movff	(c:4041),(c:InterruptHandlerHigh@buffer)	;volatile
  2535                           opt subtitle "HI-TECH Software Omniscient Code Generator (Lite mode) build 49521"
  2536                           
  2537  00006A                     i2l1084:
  2538                           opt subtitle "HI-TECH Software Omniscient Code Generator (Lite mode) build 49521"
  2539  00006A  5037               	movf	((c:InterruptHandlerHigh@buffer)),c,w
  2540  00006C  0A94               	xorlw	148
  2541                           opt subtitle "HI-TECH Software Omniscient Code Generator (Lite mode) build 49521"
  2542  00006E  A4D8               	btfss	status,2
  2543  000070  D001               	goto	i2u14_41
  2544  000072  D001               	goto	i2u14_40
  2545  000074                     i2u14_41:
  2546  000074  D11F               	goto	i2l210
  2547  000076                     i2u14_40:
  2548                           opt subtitle "HI-TECH Software Omniscient Code Generator (Lite mode) build 49521"
  2549                           
  2550  000076                     i2l1086:
  2551                           opt subtitle "HI-TECH Software Omniscient Code Generator (Lite mode) build 49521"
  2552                           
  2553  000076  0E01               	movlw	low(01h)
  2554  000078  6E14               	movwf	((c:_RECEIVING_FROM_MASTER)),c	;volatile
  2555  00007A  D11C               	goto	i2l210
  2556                           opt subtitle "HI-TECH Software Omniscient Code Generator (Lite mode) build 49521"
  2557                           
  2558  00007C                     i2l209:
  2559                           opt subtitle "HI-TECH Software Omniscient Code Generator (Lite mode) build 49521"
  2560                           
  2561                           opt pagewidth 120
  2562  00007C  D11B               	goto	i2l210
  2563                           opt subtitle "HI-TECH Software Omniscient Code Generator (Lite mode) build 49521"
  2564                           
  2565  00007E                     i2l208:
  2566                           opt subtitle "HI-TECH Software Omniscient Code Generator (Lite mode) build 49521"
  2567                           
  2568  00007E  A4C7               	btfss	((c:4039)),c,2	;volatile
  2569  000080  D001               	goto	i2u15_41
  2570  000082  D001               	goto	i2u15_40
  2571  000084                     i2u15_41:
  2572  000084  D0B6               	goto	i2l211
  2573  000086                     i2u15_40:
  2574                           opt subtitle "HI-TECH Software Omniscient Code Generator (Lite mode) build 49521"
  2575  000086                     i2l1088:
  2576                           opt subtitle "HI-TECH Software Omniscient Code Generator (Lite mode) build 49521"
  2577  000086  BAC7               	btfsc	((c:4039)),c,5	;volatile
  2578  000088  D001               	goto	i2u16_41
  2579  00008A  D001               	goto	i2u16_40
  2580  00008C                     i2u16_41:
  2581  00008C  D0B2               	goto	i2l211
  2582  00008E                     i2u16_40:
  2583                           opt subtitle "HI-TECH Software Omniscient Code Generator (Lite mode) build 49521"
  2584  00008E                     i2l1090:
  2585  00008E  5014               	movf	((c:_RECEIVING_FROM_MASTER)),c,w	;volatile
  2586  000090  B4D8               	btfsc	status,2
  2587  000092  D001               	goto	i2u17_41
  2588  000094  D001               	goto	i2u17_40
  2589  000096                     i2u17_41:
  2590  000096  D0AD               	goto	i2l211
  2591  000098                     i2u17_40:
  2592                           opt subtitle "HI-TECH Software Omniscient Code Generator (Lite mode) build 49521"
  2593                           
  2594  000098                     i2l1092:
  2595                           opt subtitle "HI-TECH Software Omniscient Code Generator (Lite mode) build 49521"
  2596                           
  2597  000098  CFC9 F037          	movff	(c:4041),(c:InterruptHandlerHigh@buffer)	;volatile
  2598                           opt subtitle "HI-TECH Software Omniscient Code Generator (Lite mode) build 49521"
  2599                           
  2600  00009C                     i2l1094:
  2601                           opt subtitle "HI-TECH Software Omniscient Code Generator (Lite mode) build 49521"
  2602  00009C  5015               	movf	((c:_checksum)),c,w	;volatile
  2603  00009E  EE20  F01E         	lfsr	2,(c:_dataBuffer)+07h	;volatile
  2604  0000A2  62DF               	cpfseq	indf2
  2605  0000A4  D001               	goto	i2u18_41
  2606  0000A6  D001               	goto	i2u18_40
  2607  0000A8                     i2u18_41:
  2608  0000A8  D09A               	goto	i2l1124
  2609  0000AA                     i2u18_40:
  2610                           opt subtitle "HI-TECH Software Omniscient Code Generator (Lite mode) build 49521"
  2611                           
  2612  0000AA                     i2l1096:
  2613                           opt subtitle "HI-TECH Software Omniscient Code Generator (Lite mode) build 49521"
  2614                           
  2615  0000AA  0E00               	movlw	low(0)
  2616  0000AC  6E01               	movwf	((c:_kickAutoCount)),c	;volatile
  2617  0000AE  0E00               	movlw	high(0)
  2618  0000B0  6E02               	movwf	((c:_kickAutoCount+1)),c	;volatile
  2619  0000B2  0E00               	movlw	low highword(0)
  2620  0000B4  6E03               	movwf	((c:_kickAutoCount+2)),c	;volatile
  2621  0000B6  0E00               	movlw	high highword(0)
  2622  0000B8  6E04               	movwf	((c:_kickAutoCount+3)),c	;volatile
  2623                           opt subtitle "HI-TECH Software Omniscient Code Generator (Lite mode) build 49521"
  2624                           
  2625  0000BA  0E01               	movlw	low(01h)
  2626  0000BC  6E16               	movwf	((c:_data_updated)),c	;volatile
  2627                           opt subtitle "HI-TECH Software Omniscient Code Generator (Lite mode) build 49521"
  2628                           
  2629  0000BE  0E41               	movlw	low(041h)
  2630  0000C0  6EC9               	movwf	((c:4041)),c	;volatile
  2631                           opt subtitle "HI-TECH Software Omniscient Code Generator (Lite mode) build 49521"
  2632                           
  2633  0000C2                     i2l1098:
  2634                           opt subtitle "HI-TECH Software Omniscient Code Generator (Lite mode) build 49521"
  2635  0000C2  EC34  F003         	call	_SETUP_releaseI2C	;wreg free
  2636                           opt subtitle "HI-TECH Software Omniscient Code Generator (Lite mode) build 49521"
  2637                           
  2638  0000C6                     i2l1100:
  2639                           opt subtitle "HI-TECH Software Omniscient Code Generator (Lite mode) build 49521"
  2640  0000C6  EC31  F003         	call	_SETUP_swI2C_intOff	;wreg free
  2641                           opt subtitle "HI-TECH Software Omniscient Code Generator (Lite mode) build 49521"
  2642                           
  2643  0000CA                     i2l1102:
  2644                           opt subtitle "HI-TECH Software Omniscient Code Generator (Lite mode) build 49521"
  2645  0000CA  5018               	movf	(0+((c:_dataBuffer)+01h)),c,w	;volatile
  2646  0000CC  0D49               	mullw	049h
  2647  0000CE  CFF3 F01F          	movff	prodl,(c:?___awdiv)
  2648  0000D2  CFF4 F020          	movff	prodh,(c:?___awdiv+1)
  2649  0000D6  0E00               	movlw	high(0FFh)
  2650  0000D8  6E22               	movwf	(1+((c:?___awdiv)+02h)),c
  2651  0000DA  0EFF               	movlw	low(0FFh)
  2652  0000DC  6E21               	movwf	(0+((c:?___awdiv)+02h)),c
  2653  0000DE  EC64  F002         	call	___awdiv	;wreg free
  2654  0000E2  0E3D               	movlw	low(03Dh)
  2655  0000E4  241F               	addwf	(0+?___awdiv),c,w
  2656                           opt subtitle "HI-TECH Software Omniscient Code Generator (Lite mode) build 49521"
  2657  0000E6  6E4F               	movwf	((c:_ESC_PWM_REG)),c	;volatile
  2658  0000E8  0E00               	movlw	high(03Dh)
  2659  0000EA  2020               	addwfc	(1+?___awdiv),c,w
  2660  0000EC  6E50               	movwf	1+((c:_ESC_PWM_REG)),c	;volatile
  2661                           opt subtitle "HI-TECH Software Omniscient Code Generator (Lite mode) build 49521"
  2662                           
  2663  0000EE                     i2l1104:
  2664                           opt subtitle "HI-TECH Software Omniscient Code Generator (Lite mode) build 49521"
  2665  0000EE  5019               	movf	(0+((c:_dataBuffer)+02h)),c,w	;volatile
  2666  0000F0  0D49               	mullw	049h
  2667  0000F2  CFF3 F01F          	movff	prodl,(c:?___awdiv)
  2668  0000F6  CFF4 F020          	movff	prodh,(c:?___awdiv+1)
  2669  0000FA  0E00               	movlw	high(0FFh)
  2670  0000FC  6E22               	movwf	(1+((c:?___awdiv)+02h)),c
  2671  0000FE  0EFF               	movlw	low(0FFh)
  2672  000100  6E21               	movwf	(0+((c:?___awdiv)+02h)),c
  2673  000102  EC64  F002         	call	___awdiv	;wreg free
  2674  000106  0E3D               	movlw	low(03Dh)
  2675  000108  241F               	addwf	(0+?___awdiv),c,w
  2676                           opt subtitle "HI-TECH Software Omniscient Code Generator (Lite mode) build 49521"
  2677  00010A  6E49               	movwf	((c:_AIL_PWM_REG)),c	;volatile
  2678  00010C  0E00               	movlw	high(03Dh)
  2679  00010E  2020               	addwfc	(1+?___awdiv),c,w
  2680  000110  6E4A               	movwf	1+((c:_AIL_PWM_REG)),c	;volatile
  2681                           opt subtitle "HI-TECH Software Omniscient Code Generator (Lite mode) build 49521"
  2682                           
  2683  000112                     i2l1106:
  2684                           opt subtitle "HI-TECH Software Omniscient Code Generator (Lite mode) build 49521"
  2685  000112  501A               	movf	(0+((c:_dataBuffer)+03h)),c,w	;volatile
  2686  000114  0D49               	mullw	049h
  2687  000116  CFF3 F01F          	movff	prodl,(c:?___awdiv)
  2688  00011A  CFF4 F020          	movff	prodh,(c:?___awdiv+1)
  2689  00011E  0E00               	movlw	high(0FFh)
  2690  000120  6E22               	movwf	(1+((c:?___awdiv)+02h)),c
  2691  000122  0EFF               	movlw	low(0FFh)
  2692  000124  6E21               	movwf	(0+((c:?___awdiv)+02h)),c
  2693  000126  EC64  F002         	call	___awdiv	;wreg free
  2694  00012A  0E3D               	movlw	low(03Dh)
  2695  00012C  241F               	addwf	(0+?___awdiv),c,w
  2696                           opt subtitle "HI-TECH Software Omniscient Code Generator (Lite mode) build 49521"
  2697  00012E  6E4D               	movwf	((c:_ELEV_PWM_REG)),c	;volatile
  2698  000130  0E00               	movlw	high(03Dh)
  2699  000132  2020               	addwfc	(1+?___awdiv),c,w
  2700  000134  6E4E               	movwf	1+((c:_ELEV_PWM_REG)),c	;volatile
  2701                           opt subtitle "HI-TECH Software Omniscient Code Generator (Lite mode) build 49521"
  2702                           
  2703  000136                     i2l1108:
  2704                           opt subtitle "HI-TECH Software Omniscient Code Generator (Lite mode) build 49521"
  2705  000136  501B               	movf	(0+((c:_dataBuffer)+04h)),c,w	;volatile
  2706  000138  0D49               	mullw	049h
  2707  00013A  CFF3 F01F          	movff	prodl,(c:?___awdiv)
  2708  00013E  CFF4 F020          	movff	prodh,(c:?___awdiv+1)
  2709  000142  0E00               	movlw	high(0FFh)
  2710  000144  6E22               	movwf	(1+((c:?___awdiv)+02h)),c
  2711  000146  0EFF               	movlw	low(0FFh)
  2712  000148  6E21               	movwf	(0+((c:?___awdiv)+02h)),c
  2713  00014A  EC64  F002         	call	___awdiv	;wreg free
  2714  00014E  0E3D               	movlw	low(03Dh)
  2715  000150  241F               	addwf	(0+?___awdiv),c,w
  2716                           opt subtitle "HI-TECH Software Omniscient Code Generator (Lite mode) build 49521"
  2717  000152  6E53               	movwf	((c:_RUDD_PWM_REG)),c	;volatile
  2718  000154  0E00               	movlw	high(03Dh)
  2719  000156  2020               	addwfc	(1+?___awdiv),c,w
  2720  000158  6E54               	movwf	1+((c:_RUDD_PWM_REG)),c	;volatile
  2721                           opt subtitle "HI-TECH Software Omniscient Code Generator (Lite mode) build 49521"
  2722                           
  2723  00015A                     i2l1110:
  2724                           opt subtitle "HI-TECH Software Omniscient Code Generator (Lite mode) build 49521"
  2725  00015A  501C               	movf	(0+((c:_dataBuffer)+05h)),c,w	;volatile
  2726  00015C  0D49               	mullw	049h
  2727  00015E  CFF3 F01F          	movff	prodl,(c:?___awdiv)
  2728  000162  CFF4 F020          	movff	prodh,(c:?___awdiv+1)
  2729  000166  0E00               	movlw	high(0FFh)
  2730  000168  6E22               	movwf	(1+((c:?___awdiv)+02h)),c
  2731  00016A  0EFF               	movlw	low(0FFh)
  2732  00016C  6E21               	movwf	(0+((c:?___awdiv)+02h)),c
  2733  00016E  EC64  F002         	call	___awdiv	;wreg free
  2734  000172  0E3D               	movlw	low(03Dh)
  2735  000174  241F               	addwf	(0+?___awdiv),c,w
  2736                           opt subtitle "HI-TECH Software Omniscient Code Generator (Lite mode) build 49521"
  2737  000176  6E51               	movwf	((c:_GEAR_PWM_REG)),c	;volatile
  2738  000178  0E00               	movlw	high(03Dh)
  2739  00017A  2020               	addwfc	(1+?___awdiv),c,w
  2740  00017C  6E52               	movwf	1+((c:_GEAR_PWM_REG)),c	;volatile
  2741                           opt subtitle "HI-TECH Software Omniscient Code Generator (Lite mode) build 49521"
  2742                           
  2743  00017E                     i2l1112:
  2744                           opt subtitle "HI-TECH Software Omniscient Code Generator (Lite mode) build 49521"
  2745  00017E  501D               	movf	(0+((c:_dataBuffer)+06h)),c,w	;volatile
  2746  000180  0D49               	mullw	049h
  2747  000182  CFF3 F01F          	movff	prodl,(c:?___awdiv)
  2748  000186  CFF4 F020          	movff	prodh,(c:?___awdiv+1)
  2749  00018A  0E00               	movlw	high(0FFh)
  2750  00018C  6E22               	movwf	(1+((c:?___awdiv)+02h)),c
  2751  00018E  0EFF               	movlw	low(0FFh)
  2752  000190  6E21               	movwf	(0+((c:?___awdiv)+02h)),c
  2753  000192  EC64  F002         	call	___awdiv	;wreg free
  2754  000196  0E3D               	movlw	low(03Dh)
  2755  000198  241F               	addwf	(0+?___awdiv),c,w
  2756                           opt subtitle "HI-TECH Software Omniscient Code Generator (Lite mode) build 49521"
  2757  00019A  6E4B               	movwf	((c:_AUX_PWM_REG)),c	;volatile
  2758  00019C  0E00               	movlw	high(03Dh)
  2759  00019E  2020               	addwfc	(1+?___awdiv),c,w
  2760  0001A0  6E4C               	movwf	1+((c:_AUX_PWM_REG)),c	;volatile
  2761                           opt subtitle "HI-TECH Software Omniscient Code Generator (Lite mode) build 49521"
  2762                           
  2763  0001A2                     i2l1114:
  2764                           opt subtitle "HI-TECH Software Omniscient Code Generator (Lite mode) build 49521"
  2765  0001A2  6E28               	movwf	(??_InterruptHandlerHigh+0+0)&0ffh,c
  2766  0001A4  0E8A               	movlw	low(08Ah)
  2767  0001A6  6E1F               	movwf	((c:?_SETUP_T0_activate)),c
  2768  0001A8  5028               	movf	(??_InterruptHandlerHigh+0+0)&0ffh,c,w
  2769  0001AA  EC24  F003         	call	_SETUP_T0_activate	;wreg free
  2770                           opt subtitle "HI-TECH Software Omniscient Code Generator (Lite mode) build 49521"
  2771                           
  2772  0001AE                     i2l1116:
  2773                           opt subtitle "HI-TECH Software Omniscient Code Generator (Lite mode) build 49521"
  2774  0001AE  0E01               	movlw	low(01h)
  2775  0001B0  6E43               	movwf	((c:_AUX_n)),c	;volatile
  2776  0001B2  C043  F046         	movff	(c:_AUX_n),(c:_GEAR_n)	;volatile
  2777  0001B6  C046  F044         	movff	(c:_GEAR_n),(c:_ELEV_n)	;volatile
  2778  0001BA  C044  F048         	movff	(c:_ELEV_n),(c:_RUDD_n)	;volatile
  2779  0001BE  C048  F042         	movff	(c:_RUDD_n),(c:_AIL_n)	;volatile
  2780  0001C2  C042  F045         	movff	(c:_AIL_n),(c:_ESC_n)	;volatile
  2781                           opt subtitle "HI-TECH Software Omniscient Code Generator (Lite mode) build 49521"
  2782                           
  2783  0001C6                     i2l1118:
  2784                           opt subtitle "HI-TECH Software Omniscient Code Generator (Lite mode) build 49521"
  2785  0001C6  0E3F               	movlw	low(03Fh)
  2786  0001C8  6E47               	movwf	((c:_PWM_SET)),c	;volatile
  2787                           opt subtitle "HI-TECH Software Omniscient Code Generator (Lite mode) build 49521"
  2788                           
  2789  0001CA                     i2l1120:
  2790                           opt subtitle "HI-TECH Software Omniscient Code Generator (Lite mode) build 49521"
  2791  0001CA  5017               	movf	((c:_dataBuffer)),c,w	;volatile
  2792  0001CC  B4D8               	btfsc	status,2
  2793  0001CE  D001               	goto	i2u19_41
  2794  0001D0  D001               	goto	i2u19_40
  2795  0001D2                     i2u19_41:
  2796  0001D2  D002               	goto	i2l213
  2797  0001D4                     i2u19_40:
  2798                           opt subtitle "HI-TECH Software Omniscient Code Generator (Lite mode) build 49521"
  2799                           
  2800  0001D4                     i2l1122:
  2801                           opt subtitle "HI-TECH Software Omniscient Code Generator (Lite mode) build 49521"
  2802  0001D4  948A               	bcf	((c:3978)),c,2	;volatile
  2803                           opt subtitle "HI-TECH Software Omniscient Code Generator (Lite mode) build 49521"
  2804                           
  2805  0001D6  D006               	goto	i2l215
  2806                           opt subtitle "HI-TECH Software Omniscient Code Generator (Lite mode) build 49521"
  2807                           
  2808  0001D8                     i2l213:
  2809                           opt subtitle "HI-TECH Software Omniscient Code Generator (Lite mode) build 49521"
  2810                           
  2811                           opt pagewidth 120
  2812                           
  2813  0001D8  848A               	bsf	((c:3978)),c,2	;volatile
  2814  0001DA  D004               	goto	i2l215
  2815                           opt subtitle "HI-TECH Software Omniscient Code Generator (Lite mode) build 49521"
  2816                           
  2817  0001DC                     i2l214:
  2818                           opt subtitle "HI-TECH Software Omniscient Code Generator (Lite mode) build 49521"
  2819                           
  2820                           opt pagewidth 120
  2821  0001DC  D003               	goto	i2l215
  2822                           opt subtitle "HI-TECH Software Omniscient Code Generator (Lite mode) build 49521"
  2823                           
  2824  0001DE                     i2l212:
  2825                           opt subtitle "HI-TECH Software Omniscient Code Generator (Lite mode) build 49521"
  2826                           
  2827  0001DE                     i2l1124:
  2828                           opt subtitle "HI-TECH Software Omniscient Code Generator (Lite mode) build 49521"
  2829                           
  2830                           opt pagewidth 120
  2831  0001DE  0E4E               	movlw	low(04Eh)
  2832  0001E0  6EC9               	movwf	((c:4041)),c	;volatile
  2833                           opt subtitle "HI-TECH Software Omniscient Code Generator (Lite mode) build 49521"
  2834                           
  2835  0001E2                     i2l1126:
  2836                           opt subtitle "HI-TECH Software Omniscient Code Generator (Lite mode) build 49521"
  2837  0001E2  88C6               	bsf	((c:4038)),c,4	;volatile
  2838                           opt subtitle "HI-TECH Software Omniscient Code Generator (Lite mode) build 49521"
  2839                           
  2840  0001E4                     i2l215:
  2841                           opt subtitle "HI-TECH Software Omniscient Code Generator (Lite mode) build 49521"
  2842                           
  2843                           opt pagewidth 120
  2844  0001E4  0E00               	movlw	low(0)
  2845  0001E6  6E14               	movwf	((c:_RECEIVING_FROM_MASTER)),c	;volatile
  2846                           opt subtitle "HI-TECH Software Omniscient Code Generator (Lite mode) build 49521"
  2847                           
  2848  0001E8  0E09               	movlw	low(09h)
  2849  0001EA  6E13               	movwf	((c:_I2C_FSM)),c	;volatile
  2850  0001EC  D0EC               	goto	i2l216
  2851                           opt subtitle "HI-TECH Software Omniscient Code Generator (Lite mode) build 49521"
  2852                           
  2853  0001EE                     i2l1128:
  2854                           opt subtitle "HI-TECH Software Omniscient Code Generator (Lite mode) build 49521"
  2855  0001EE  D0EB               	goto	i2l216
  2856                           opt subtitle "HI-TECH Software Omniscient Code Generator (Lite mode) build 49521"
  2857                           
  2858  0001F0                     i2l1130:
  2859                           opt subtitle "HI-TECH Software Omniscient Code Generator (Lite mode) build 49521"
  2860  0001F0  D061               	goto	i2l210
  2861                           opt subtitle "HI-TECH Software Omniscient Code Generator (Lite mode) build 49521"
  2862                           
  2863  0001F2                     i2l211:
  2864                           opt subtitle "HI-TECH Software Omniscient Code Generator (Lite mode) build 49521"
  2865                           
  2866  0001F2  AAC7               	btfss	((c:4039)),c,5	;volatile
  2867  0001F4  D001               	goto	i2u20_41
  2868  0001F6  D001               	goto	i2u20_40
  2869  0001F8                     i2u20_41:
  2870  0001F8  D05D               	goto	i2l210
  2871  0001FA                     i2u20_40:
  2872                           opt subtitle "HI-TECH Software Omniscient Code Generator (Lite mode) build 49521"
  2873  0001FA                     i2l1132:
  2874  0001FA  5014               	movf	((c:_RECEIVING_FROM_MASTER)),c,w	;volatile
  2875  0001FC  B4D8               	btfsc	status,2
  2876  0001FE  D001               	goto	i2u21_41
  2877  000200  D001               	goto	i2u21_40
  2878  000202                     i2u21_41:
  2879  000202  D058               	goto	i2l210
  2880  000204                     i2u21_40:
  2881  000204  D03B               	goto	i2l1172
  2882                           opt subtitle "HI-TECH Software Omniscient Code Generator (Lite mode) build 49521"
  2883                           
  2884  000206                     i2l1134:
  2885                           opt subtitle "HI-TECH Software Omniscient Code Generator (Lite mode) build 49521"
  2886                           
  2887  000206  D03A               	goto	i2l1172
  2888                           opt subtitle "HI-TECH Software Omniscient Code Generator (Lite mode) build 49521"
  2889                           
  2890                           opt pagewidth 120
  2891                           
  2892  000208                     i2l220:
  2893                           opt subtitle "HI-TECH Software Omniscient Code Generator (Lite mode) build 49521"
  2894                           
  2895  000208                     i2l1136:
  2896                           opt subtitle "HI-TECH Software Omniscient Code Generator (Lite mode) build 49521"
  2897  000208  0E00               	movlw	low(0)
  2898  00020A  6E15               	movwf	((c:_checksum)),c	;volatile
  2899                           opt subtitle "HI-TECH Software Omniscient Code Generator (Lite mode) build 49521"
  2900                           
  2901  00020C                     i2l1138:
  2902                           opt subtitle "HI-TECH Software Omniscient Code Generator (Lite mode) build 49521"
  2903  00020C  CFC9 F017          	movff	(c:4041),(c:_dataBuffer)	;volatile
  2904                           opt subtitle "HI-TECH Software Omniscient Code Generator (Lite mode) build 49521"
  2905                           
  2906  000210                     i2l1140:
  2907                           opt subtitle "HI-TECH Software Omniscient Code Generator (Lite mode) build 49521"
  2908  000210  5017               	movf	((c:_dataBuffer)),c,w	;volatile
  2909  000212  1A15               	xorwf	((c:_checksum)),c	;volatile
  2910                           opt subtitle "HI-TECH Software Omniscient Code Generator (Lite mode) build 49521"
  2911                           
  2912  000214                     i2l1142:
  2913                           opt subtitle "HI-TECH Software Omniscient Code Generator (Lite mode) build 49521"
  2914  000214  0E02               	movlw	low(02h)
  2915  000216  6E13               	movwf	((c:_I2C_FSM)),c	;volatile
  2916                           opt subtitle "HI-TECH Software Omniscient Code Generator (Lite mode) build 49521"
  2917                           
  2918  000218  D04D               	goto	i2l210
  2919                           opt subtitle "HI-TECH Software Omniscient Code Generator (Lite mode) build 49521"
  2920                           
  2921                           opt pagewidth 120
  2922  00021A                     i2l222:
  2923                           opt subtitle "HI-TECH Software Omniscient Code Generator (Lite mode) build 49521"
  2924                           
  2925  00021A  CFC9 F018          	movff	(c:4041),0+((c:_dataBuffer)+01h)	;volatile
  2926                           opt subtitle "HI-TECH Software Omniscient Code Generator (Lite mode) build 49521"
  2927                           
  2928  00021E                     i2l1144:
  2929                           opt subtitle "HI-TECH Software Omniscient Code Generator (Lite mode) build 49521"
  2930  00021E  5018               	movf	(0+((c:_dataBuffer)+01h)),c,w	;volatile
  2931  000220  1A15               	xorwf	((c:_checksum)),c	;volatile
  2932                           opt subtitle "HI-TECH Software Omniscient Code Generator (Lite mode) build 49521"
  2933                           
  2934  000222                     i2l1146:
  2935                           opt subtitle "HI-TECH Software Omniscient Code Generator (Lite mode) build 49521"
  2936  000222  0E03               	movlw	low(03h)
  2937  000224  6E13               	movwf	((c:_I2C_FSM)),c	;volatile
  2938                           opt subtitle "HI-TECH Software Omniscient Code Generator (Lite mode) build 49521"
  2939                           
  2940  000226  D046               	goto	i2l210
  2941                           opt subtitle "HI-TECH Software Omniscient Code Generator (Lite mode) build 49521"
  2942                           
  2943                           opt pagewidth 120
  2944  000228                     i2l223:
  2945                           opt subtitle "HI-TECH Software Omniscient Code Generator (Lite mode) build 49521"
  2946                           
  2947  000228  CFC9 F019          	movff	(c:4041),0+((c:_dataBuffer)+02h)	;volatile
  2948                           opt subtitle "HI-TECH Software Omniscient Code Generator (Lite mode) build 49521"
  2949                           
  2950  00022C                     i2l1148:
  2951                           opt subtitle "HI-TECH Software Omniscient Code Generator (Lite mode) build 49521"
  2952  00022C  5019               	movf	(0+((c:_dataBuffer)+02h)),c,w	;volatile
  2953  00022E  1A15               	xorwf	((c:_checksum)),c	;volatile
  2954                           opt subtitle "HI-TECH Software Omniscient Code Generator (Lite mode) build 49521"
  2955                           
  2956  000230                     i2l1150:
  2957                           opt subtitle "HI-TECH Software Omniscient Code Generator (Lite mode) build 49521"
  2958  000230  0E04               	movlw	low(04h)
  2959  000232  6E13               	movwf	((c:_I2C_FSM)),c	;volatile
  2960                           opt subtitle "HI-TECH Software Omniscient Code Generator (Lite mode) build 49521"
  2961                           
  2962  000234  D03F               	goto	i2l210
  2963                           opt subtitle "HI-TECH Software Omniscient Code Generator (Lite mode) build 49521"
  2964                           
  2965                           opt pagewidth 120
  2966  000236                     i2l224:
  2967                           opt subtitle "HI-TECH Software Omniscient Code Generator (Lite mode) build 49521"
  2968                           
  2969  000236  CFC9 F01A          	movff	(c:4041),0+((c:_dataBuffer)+03h)	;volatile
  2970                           opt subtitle "HI-TECH Software Omniscient Code Generator (Lite mode) build 49521"
  2971                           
  2972  00023A                     i2l1152:
  2973                           opt subtitle "HI-TECH Software Omniscient Code Generator (Lite mode) build 49521"
  2974  00023A  501A               	movf	(0+((c:_dataBuffer)+03h)),c,w	;volatile
  2975  00023C  1A15               	xorwf	((c:_checksum)),c	;volatile
  2976                           opt subtitle "HI-TECH Software Omniscient Code Generator (Lite mode) build 49521"
  2977                           
  2978  00023E                     i2l1154:
  2979                           opt subtitle "HI-TECH Software Omniscient Code Generator (Lite mode) build 49521"
  2980  00023E  0E05               	movlw	low(05h)
  2981  000240  6E13               	movwf	((c:_I2C_FSM)),c	;volatile
  2982                           opt subtitle "HI-TECH Software Omniscient Code Generator (Lite mode) build 49521"
  2983                           
  2984  000242  D038               	goto	i2l210
  2985                           opt subtitle "HI-TECH Software Omniscient Code Generator (Lite mode) build 49521"
  2986                           
  2987                           opt pagewidth 120
  2988  000244                     i2l225:
  2989                           opt subtitle "HI-TECH Software Omniscient Code Generator (Lite mode) build 49521"
  2990                           
  2991  000244  CFC9 F01B          	movff	(c:4041),0+((c:_dataBuffer)+04h)	;volatile
  2992                           opt subtitle "HI-TECH Software Omniscient Code Generator (Lite mode) build 49521"
  2993                           
  2994  000248                     i2l1156:
  2995                           opt subtitle "HI-TECH Software Omniscient Code Generator (Lite mode) build 49521"
  2996  000248  501B               	movf	(0+((c:_dataBuffer)+04h)),c,w	;volatile
  2997  00024A  1A15               	xorwf	((c:_checksum)),c	;volatile
  2998                           opt subtitle "HI-TECH Software Omniscient Code Generator (Lite mode) build 49521"
  2999                           
  3000  00024C                     i2l1158:
  3001                           opt subtitle "HI-TECH Software Omniscient Code Generator (Lite mode) build 49521"
  3002  00024C  0E06               	movlw	low(06h)
  3003  00024E  6E13               	movwf	((c:_I2C_FSM)),c	;volatile
  3004                           opt subtitle "HI-TECH Software Omniscient Code Generator (Lite mode) build 49521"
  3005                           
  3006  000250  D031               	goto	i2l210
  3007                           opt subtitle "HI-TECH Software Omniscient Code Generator (Lite mode) build 49521"
  3008                           
  3009                           opt pagewidth 120
  3010  000252                     i2l226:
  3011                           opt subtitle "HI-TECH Software Omniscient Code Generator (Lite mode) build 49521"
  3012                           
  3013  000252  CFC9 F01C          	movff	(c:4041),0+((c:_dataBuffer)+05h)	;volatile
  3014                           opt subtitle "HI-TECH Software Omniscient Code Generator (Lite mode) build 49521"
  3015                           
  3016  000256                     i2l1160:
  3017                           opt subtitle "HI-TECH Software Omniscient Code Generator (Lite mode) build 49521"
  3018  000256  501C               	movf	(0+((c:_dataBuffer)+05h)),c,w	;volatile
  3019  000258  1A15               	xorwf	((c:_checksum)),c	;volatile
  3020                           opt subtitle "HI-TECH Software Omniscient Code Generator (Lite mode) build 49521"
  3021                           
  3022  00025A                     i2l1162:
  3023                           opt subtitle "HI-TECH Software Omniscient Code Generator (Lite mode) build 49521"
  3024  00025A  0E07               	movlw	low(07h)
  3025  00025C  6E13               	movwf	((c:_I2C_FSM)),c	;volatile
  3026                           opt subtitle "HI-TECH Software Omniscient Code Generator (Lite mode) build 49521"
  3027                           
  3028  00025E  D02A               	goto	i2l210
  3029                           opt subtitle "HI-TECH Software Omniscient Code Generator (Lite mode) build 49521"
  3030                           
  3031                           opt pagewidth 120
  3032  000260                     i2l227:
  3033                           opt subtitle "HI-TECH Software Omniscient Code Generator (Lite mode) build 49521"
  3034                           
  3035  000260  CFC9 F01D          	movff	(c:4041),0+((c:_dataBuffer)+06h)	;volatile
  3036                           opt subtitle "HI-TECH Software Omniscient Code Generator (Lite mode) build 49521"
  3037                           
  3038  000264                     i2l1164:
  3039                           opt subtitle "HI-TECH Software Omniscient Code Generator (Lite mode) build 49521"
  3040  000264  501D               	movf	(0+((c:_dataBuffer)+06h)),c,w	;volatile
  3041  000266  1A15               	xorwf	((c:_checksum)),c	;volatile
  3042                           opt subtitle "HI-TECH Software Omniscient Code Generator (Lite mode) build 49521"
  3043                           
  3044  000268                     i2l1166:
  3045                           opt subtitle "HI-TECH Software Omniscient Code Generator (Lite mode) build 49521"
  3046  000268  0E08               	movlw	low(08h)
  3047  00026A  6E13               	movwf	((c:_I2C_FSM)),c	;volatile
  3048                           opt subtitle "HI-TECH Software Omniscient Code Generator (Lite mode) build 49521"
  3049                           
  3050  00026C  D023               	goto	i2l210
  3051                           opt subtitle "HI-TECH Software Omniscient Code Generator (Lite mode) build 49521"
  3052                           
  3053                           opt pagewidth 120
  3054  00026E                     i2l228:
  3055                           opt subtitle "HI-TECH Software Omniscient Code Generator (Lite mode) build 49521"
  3056                           
  3057  00026E  CFC9 F01E          	movff	(c:4041),0+((c:_dataBuffer)+07h)	;volatile
  3058                           opt subtitle "HI-TECH Software Omniscient Code Generator (Lite mode) build 49521"
  3059                           
  3060  000272                     i2l1168:
  3061                           opt subtitle "HI-TECH Software Omniscient Code Generator (Lite mode) build 49521"
  3062  000272  0E09               	movlw	low(09h)
  3063  000274  6E13               	movwf	((c:_I2C_FSM)),c	;volatile
  3064                           opt subtitle "HI-TECH Software Omniscient Code Generator (Lite mode) build 49521"
  3065                           
  3066  000276  D01E               	goto	i2l210
  3067                           opt subtitle "HI-TECH Software Omniscient Code Generator (Lite mode) build 49521"
  3068                           
  3069                           opt pagewidth 120
  3070  000278                     i2l229:
  3071                           opt subtitle "HI-TECH Software Omniscient Code Generator (Lite mode) build 49521"
  3072                           
  3073  000278  D01D               	goto	i2l210
  3074                           opt subtitle "HI-TECH Software Omniscient Code Generator (Lite mode) build 49521"
  3075                           
  3076  00027A                     i2l1170:
  3077                           opt subtitle "HI-TECH Software Omniscient Code Generator (Lite mode) build 49521"
  3078  00027A  D01C               	goto	i2l210
  3079                           opt subtitle "HI-TECH Software Omniscient Code Generator (Lite mode) build 49521"
  3080                           
  3081  00027C                     i2l219:
  3082                           opt subtitle "HI-TECH Software Omniscient Code Generator (Lite mode) build 49521"
  3083  00027C                     i2l1172:
  3084  00027C  5013               	movf	((c:_I2C_FSM)),c,w	;volatile
  3085                           opt subtitle "HI-TECH Software Omniscient Code Generator (Lite mode) build 49521"
  3086                           
  3087                           opt pagewidth 120
  3088                           
  3089                           	opt lm
  3090                           
  3091                           	processor	18F26K22
  3092  00027E  0A00               	xorlw	0^0	; case 0
  3093  000280  B4D8               	skipnz
  3094  000282  D7C2               	goto	i2l1136
  3095  000284  0A02               	xorlw	2^0	; case 2
  3096  000286  B4D8               	skipnz
  3097  000288  D7C8               	goto	i2l222
  3098  00028A  0A01               	xorlw	3^2	; case 3
  3099  00028C  B4D8               	skipnz
  3100  00028E  D7CC               	goto	i2l223
  3101  000290  0A07               	xorlw	4^3	; case 4
  3102  000292  B4D8               	skipnz
  3103  000294  D7D0               	goto	i2l224
  3104  000296  0A01               	xorlw	5^4	; case 5
  3105  000298  B4D8               	skipnz
  3106  00029A  D7D4               	goto	i2l225
  3107  00029C  0A03               	xorlw	6^5	; case 6
  3108  00029E  B4D8               	skipnz
  3109  0002A0  D7D8               	goto	i2l226
  3110  0002A2  0A01               	xorlw	7^6	; case 7
  3111  0002A4  B4D8               	skipnz
  3112  0002A6  D7DC               	goto	i2l227
  3113  0002A8  0A0F               	xorlw	8^7	; case 8
  3114  0002AA  B4D8               	skipnz
  3115  0002AC  D7E0               	goto	i2l228
  3116  0002AE  D002               	goto	i2l210
  3117                           opt subtitle "HI-TECH Software Omniscient Code Generator (Lite mode) build 49521"
  3118                           
  3119                           opt pagewidth 120
  3120  0002B0                     i2l221:
  3121  0002B0  D001               	goto	i2l210
  3122                           opt subtitle "HI-TECH Software Omniscient Code Generator (Lite mode) build 49521"
  3123                           
  3124  0002B2                     i2l218:
  3125  0002B2  D000               	goto	i2l210
  3126                           opt subtitle "HI-TECH Software Omniscient Code Generator (Lite mode) build 49521"
  3127                           
  3128  0002B4                     i2l217:
  3129                           opt subtitle "HI-TECH Software Omniscient Code Generator (Lite mode) build 49521"
  3130  0002B4                     i2l210:
  3131                           opt subtitle "HI-TECH Software Omniscient Code Generator (Lite mode) build 49521"
  3132                           
  3133  0002B4  88C6               	bsf	((c:4038)),c,4	;volatile
  3134                           opt subtitle "HI-TECH Software Omniscient Code Generator (Lite mode) build 49521"
  3135                           
  3136  0002B6                     i2l207:
  3137                           opt subtitle "HI-TECH Software Omniscient Code Generator (Lite mode) build 49521"
  3138                           
  3139                           opt pagewidth 120
  3140                           
  3141  0002B6  A4F2               	btfss	((c:4082)),c,2	;volatile
  3142  0002B8  D001               	goto	i2u22_41
  3143  0002BA  D001               	goto	i2u22_40
  3144  0002BC                     i2u22_41:
  3145  0002BC  D084               	goto	i2l216
  3146  0002BE                     i2u22_40:
  3147                           opt subtitle "HI-TECH Software Omniscient Code Generator (Lite mode) build 49521"
  3148  0002BE                     i2l1174:
  3149                           opt subtitle "HI-TECH Software Omniscient Code Generator (Lite mode) build 49521"
  3150  0002BE  AAF2               	btfss	((c:4082)),c,5	;volatile
  3151  0002C0  D001               	goto	i2u23_41
  3152  0002C2  D001               	goto	i2u23_40
  3153  0002C4                     i2u23_41:
  3154  0002C4  D080               	goto	i2l216
  3155  0002C6                     i2u23_40:
  3156                           opt subtitle "HI-TECH Software Omniscient Code Generator (Lite mode) build 49521"
  3157                           
  3158  0002C6                     i2l1176:
  3159                           opt subtitle "HI-TECH Software Omniscient Code Generator (Lite mode) build 49521"
  3160  0002C6  94F2               	bcf	((c:4082)),c,2	;volatile
  3161                           opt subtitle "HI-TECH Software Omniscient Code Generator (Lite mode) build 49521"
  3162                           
  3163  0002C8                     i2l1178:
  3164                           opt subtitle "HI-TECH Software Omniscient Code Generator (Lite mode) build 49521"
  3165  0002C8  50D6               	movf	((c:4054)),c,w	;volatile
  3166  0002CA  0F8A               	addlw	low(08Ah)
  3167  0002CC  6ED6               	movwf	((c:4054)),c	;volatile
  3168                           opt subtitle "HI-TECH Software Omniscient Code Generator (Lite mode) build 49521"
  3169                           
  3170  0002CE                     i2l1180:
  3171                           opt subtitle "HI-TECH Software Omniscient Code Generator (Lite mode) build 49521"
  3172  0002CE  B045               	btfsc	(c:_ESC_n),c,0	;volatile
  3173  0002D0  D002               	bra	i2u24_45
  3174  0002D2  908A               	bcf	((c:3978)),c,0	;volatile
  3175  0002D4  D001               	bra	i2u24_46
  3176  0002D6                     	i2u24_45:
  3177  0002D6  808A               	bsf	((c:3978)),c,0	;volatile
  3178  0002D8                     	i2u24_46:
  3179                           opt subtitle "HI-TECH Software Omniscient Code Generator (Lite mode) build 49521"
  3180                           
  3181                           opt pagewidth 120
  3182  0002D8                     i2l1182:
  3183                           opt subtitle "HI-TECH Software Omniscient Code Generator (Lite mode) build 49521"
  3184  0002D8  B042               	btfsc	(c:_AIL_n),c,0	;volatile
  3185  0002DA  D002               	bra	i2u25_45
  3186  0002DC  968A               	bcf	((c:3978)),c,3	;volatile
  3187  0002DE  D001               	bra	i2u25_46
  3188  0002E0                     	i2u25_45:
  3189  0002E0  868A               	bsf	((c:3978)),c,3	;volatile
  3190  0002E2                     	i2u25_46:
  3191                           opt subtitle "HI-TECH Software Omniscient Code Generator (Lite mode) build 49521"
  3192                           
  3193                           opt pagewidth 120
  3194  0002E2                     i2l1184:
  3195                           opt subtitle "HI-TECH Software Omniscient Code Generator (Lite mode) build 49521"
  3196  0002E2  B048               	btfsc	(c:_RUDD_n),c,0	;volatile
  3197  0002E4  D002               	bra	i2u26_45
  3198  0002E6  9A8A               	bcf	((c:3978)),c,5	;volatile
  3199  0002E8  D001               	bra	i2u26_46
  3200  0002EA                     	i2u26_45:
  3201  0002EA  8A8A               	bsf	((c:3978)),c,5	;volatile
  3202  0002EC                     	i2u26_46:
  3203                           opt subtitle "HI-TECH Software Omniscient Code Generator (Lite mode) build 49521"
  3204                           
  3205                           opt pagewidth 120
  3206  0002EC                     i2l1186:
  3207                           opt subtitle "HI-TECH Software Omniscient Code Generator (Lite mode) build 49521"
  3208  0002EC  B044               	btfsc	(c:_ELEV_n),c,0	;volatile
  3209  0002EE  D002               	bra	i2u27_45
  3210  0002F0  988A               	bcf	((c:3978)),c,4	;volatile
  3211  0002F2  D001               	bra	i2u27_46
  3212  0002F4                     	i2u27_45:
  3213  0002F4  888A               	bsf	((c:3978)),c,4	;volatile
  3214  0002F6                     	i2u27_46:
  3215                           opt subtitle "HI-TECH Software Omniscient Code Generator (Lite mode) build 49521"
  3216                           
  3217                           opt pagewidth 120
  3218  0002F6                     i2l1188:
  3219                           opt subtitle "HI-TECH Software Omniscient Code Generator (Lite mode) build 49521"
  3220  0002F6  B046               	btfsc	(c:_GEAR_n),c,0	;volatile
  3221  0002F8  D002               	bra	i2u28_45
  3222  0002FA  948B               	bcf	((c:3979)),c,2	;volatile
  3223  0002FC  D001               	bra	i2u28_46
  3224  0002FE                     	i2u28_45:
  3225  0002FE  848B               	bsf	((c:3979)),c,2	;volatile
  3226  000300                     	i2u28_46:
  3227                           opt subtitle "HI-TECH Software Omniscient Code Generator (Lite mode) build 49521"
  3228                           
  3229                           opt pagewidth 120
  3230  000300                     i2l1190:
  3231                           opt subtitle "HI-TECH Software Omniscient Code Generator (Lite mode) build 49521"
  3232  000300  B043               	btfsc	(c:_AUX_n),c,0	;volatile
  3233  000302  D002               	bra	i2u29_45
  3234  000304  9889               	bcf	((c:3977)),c,4	;volatile
  3235  000306  D001               	bra	i2u29_46
  3236  000308                     	i2u29_45:
  3237  000308  8889               	bsf	((c:3977)),c,4	;volatile
  3238  00030A                     	i2u29_46:
  3239                           opt subtitle "HI-TECH Software Omniscient Code Generator (Lite mode) build 49521"
  3240                           
  3241                           opt pagewidth 120
  3242  00030A                     i2l1192:
  3243                           opt subtitle "HI-TECH Software Omniscient Code Generator (Lite mode) build 49521"
  3244  00030A  6647               	tstfsz	((c:_PWM_SET)),c	;volatile
  3245  00030C  D001               	goto	i2u30_41
  3246  00030E  D001               	goto	i2u30_40
  3247  000310                     i2u30_41:
  3248  000310  D009               	goto	i2l1198
  3249  000312                     i2u30_40:
  3250                           opt subtitle "HI-TECH Software Omniscient Code Generator (Lite mode) build 49521"
  3251                           
  3252  000312                     i2l1194:
  3253                           opt subtitle "HI-TECH Software Omniscient Code Generator (Lite mode) build 49521"
  3254  000312  EC2A  F003         	call	_SETUP_T0_deactivate	;wreg free
  3255                           opt subtitle "HI-TECH Software Omniscient Code Generator (Lite mode) build 49521"
  3256                           
  3257  000316  EC37  F003         	call	i2_SETUP_swI2C_intOn	;wreg free
  3258                           opt subtitle "HI-TECH Software Omniscient Code Generator (Lite mode) build 49521"
  3259                           
  3260  00031A                     i2l1196:
  3261                           opt subtitle "HI-TECH Software Omniscient Code Generator (Lite mode) build 49521"
  3262  00031A  0E00               	movlw	high(0)
  3263  00031C  6E12               	movwf	((c:_count+1)),c	;volatile
  3264  00031E  0E00               	movlw	low(0)
  3265  000320  6E11               	movwf	((c:_count)),c	;volatile
  3266  000322  D000               	goto	i2l1198
  3267                           opt subtitle "HI-TECH Software Omniscient Code Generator (Lite mode) build 49521"
  3268                           
  3269  000324                     i2l231:
  3270                           opt subtitle "HI-TECH Software Omniscient Code Generator (Lite mode) build 49521"
  3271                           
  3272  000324                     i2l1198:
  3273                           opt subtitle "HI-TECH Software Omniscient Code Generator (Lite mode) build 49521"
  3274                           
  3275  000324  4A11               	infsnz	((c:_count)),c	;volatile
  3276  000326  2A12               	incf	((c:_count+1)),c	;volatile
  3277                           opt subtitle "HI-TECH Software Omniscient Code Generator (Lite mode) build 49521"
  3278                           
  3279  000328                     i2l1200:
  3280                           opt subtitle "HI-TECH Software Omniscient Code Generator (Lite mode) build 49521"
  3281  000328  5050               	movf	((c:_ESC_PWM_REG+1)),c,w	;volatile
  3282  00032A  1812               	xorwf	((c:_count+1)),c,w	;volatile
  3283  00032C  E102               	bnz	i2u31_45
  3284  00032E  504F               	movf	((c:_ESC_PWM_REG)),c,w	;volatile
  3285  000330  1811               	xorwf	((c:_count)),c,w	;volatile
  3286  000332                     i2u31_45:
  3287                           opt subtitle "HI-TECH Software Omniscient Code Generator (Lite mode) build 49521"
  3288  000332  A4D8               	btfss	status,2
  3289  000334  D001               	goto	i2u31_41
  3290  000336  D001               	goto	i2u31_40
  3291  000338                     i2u31_41:
  3292  000338  D004               	goto	i2l1206
  3293  00033A                     i2u31_40:
  3294                           opt subtitle "HI-TECH Software Omniscient Code Generator (Lite mode) build 49521"
  3295                           
  3296  00033A                     i2l1202:
  3297                           opt subtitle "HI-TECH Software Omniscient Code Generator (Lite mode) build 49521"
  3298  00033A  9047               	bcf	(0+(0/8)+(c:_PWM_SET)),c,(0)&7	;volatile
  3299                           opt subtitle "HI-TECH Software Omniscient Code Generator (Lite mode) build 49521"
  3300                           
  3301  00033C                     i2l1204:
  3302                           opt subtitle "HI-TECH Software Omniscient Code Generator (Lite mode) build 49521"
  3303  00033C  0E00               	movlw	low(0)
  3304  00033E  6E45               	movwf	((c:_ESC_n)),c	;volatile
  3305  000340  D000               	goto	i2l1206
  3306                           opt subtitle "HI-TECH Software Omniscient Code Generator (Lite mode) build 49521"
  3307                           
  3308  000342                     i2l232:
  3309                           opt subtitle "HI-TECH Software Omniscient Code Generator (Lite mode) build 49521"
  3310                           
  3311  000342                     i2l1206:
  3312                           opt subtitle "HI-TECH Software Omniscient Code Generator (Lite mode) build 49521"
  3313                           
  3314  000342  504A               	movf	((c:_AIL_PWM_REG+1)),c,w	;volatile
  3315  000344  1812               	xorwf	((c:_count+1)),c,w	;volatile
  3316  000346  E102               	bnz	i2u32_45
  3317  000348  5049               	movf	((c:_AIL_PWM_REG)),c,w	;volatile
  3318  00034A  1811               	xorwf	((c:_count)),c,w	;volatile
  3319  00034C                     i2u32_45:
  3320                           opt subtitle "HI-TECH Software Omniscient Code Generator (Lite mode) build 49521"
  3321  00034C  A4D8               	btfss	status,2
  3322  00034E  D001               	goto	i2u32_41
  3323  000350  D001               	goto	i2u32_40
  3324  000352                     i2u32_41:
  3325  000352  D004               	goto	i2l1212
  3326  000354                     i2u32_40:
  3327                           opt subtitle "HI-TECH Software Omniscient Code Generator (Lite mode) build 49521"
  3328                           
  3329  000354                     i2l1208:
  3330                           opt subtitle "HI-TECH Software Omniscient Code Generator (Lite mode) build 49521"
  3331  000354  9247               	bcf	(0+(1/8)+(c:_PWM_SET)),c,(1)&7	;volatile
  3332                           opt subtitle "HI-TECH Software Omniscient Code Generator (Lite mode) build 49521"
  3333                           
  3334  000356                     i2l1210:
  3335                           opt subtitle "HI-TECH Software Omniscient Code Generator (Lite mode) build 49521"
  3336  000356  0E00               	movlw	low(0)
  3337  000358  6E42               	movwf	((c:_AIL_n)),c	;volatile
  3338  00035A  D000               	goto	i2l1212
  3339                           opt subtitle "HI-TECH Software Omniscient Code Generator (Lite mode) build 49521"
  3340                           
  3341  00035C                     i2l233:
  3342                           opt subtitle "HI-TECH Software Omniscient Code Generator (Lite mode) build 49521"
  3343                           
  3344  00035C                     i2l1212:
  3345                           opt subtitle "HI-TECH Software Omniscient Code Generator (Lite mode) build 49521"
  3346                           
  3347  00035C  5054               	movf	((c:_RUDD_PWM_REG+1)),c,w	;volatile
  3348  00035E  1812               	xorwf	((c:_count+1)),c,w	;volatile
  3349  000360  E102               	bnz	i2u33_45
  3350  000362  5053               	movf	((c:_RUDD_PWM_REG)),c,w	;volatile
  3351  000364  1811               	xorwf	((c:_count)),c,w	;volatile
  3352  000366                     i2u33_45:
  3353                           opt subtitle "HI-TECH Software Omniscient Code Generator (Lite mode) build 49521"
  3354  000366  A4D8               	btfss	status,2
  3355  000368  D001               	goto	i2u33_41
  3356  00036A  D001               	goto	i2u33_40
  3357  00036C                     i2u33_41:
  3358  00036C  D004               	goto	i2l1218
  3359  00036E                     i2u33_40:
  3360                           opt subtitle "HI-TECH Software Omniscient Code Generator (Lite mode) build 49521"
  3361                           
  3362  00036E                     i2l1214:
  3363                           opt subtitle "HI-TECH Software Omniscient Code Generator (Lite mode) build 49521"
  3364  00036E  9447               	bcf	(0+(2/8)+(c:_PWM_SET)),c,(2)&7	;volatile
  3365                           opt subtitle "HI-TECH Software Omniscient Code Generator (Lite mode) build 49521"
  3366                           
  3367  000370                     i2l1216:
  3368                           opt subtitle "HI-TECH Software Omniscient Code Generator (Lite mode) build 49521"
  3369  000370  0E00               	movlw	low(0)
  3370  000372  6E48               	movwf	((c:_RUDD_n)),c	;volatile
  3371  000374  D000               	goto	i2l1218
  3372                           opt subtitle "HI-TECH Software Omniscient Code Generator (Lite mode) build 49521"
  3373                           
  3374  000376                     i2l234:
  3375                           opt subtitle "HI-TECH Software Omniscient Code Generator (Lite mode) build 49521"
  3376                           
  3377  000376                     i2l1218:
  3378                           opt subtitle "HI-TECH Software Omniscient Code Generator (Lite mode) build 49521"
  3379                           
  3380  000376  504E               	movf	((c:_ELEV_PWM_REG+1)),c,w	;volatile
  3381  000378  1812               	xorwf	((c:_count+1)),c,w	;volatile
  3382  00037A  E102               	bnz	i2u34_45
  3383  00037C  504D               	movf	((c:_ELEV_PWM_REG)),c,w	;volatile
  3384  00037E  1811               	xorwf	((c:_count)),c,w	;volatile
  3385  000380                     i2u34_45:
  3386                           opt subtitle "HI-TECH Software Omniscient Code Generator (Lite mode) build 49521"
  3387  000380  A4D8               	btfss	status,2
  3388  000382  D001               	goto	i2u34_41
  3389  000384  D001               	goto	i2u34_40
  3390  000386                     i2u34_41:
  3391  000386  D004               	goto	i2l1224
  3392  000388                     i2u34_40:
  3393                           opt subtitle "HI-TECH Software Omniscient Code Generator (Lite mode) build 49521"
  3394                           
  3395  000388                     i2l1220:
  3396                           opt subtitle "HI-TECH Software Omniscient Code Generator (Lite mode) build 49521"
  3397  000388  9647               	bcf	(0+(3/8)+(c:_PWM_SET)),c,(3)&7	;volatile
  3398                           opt subtitle "HI-TECH Software Omniscient Code Generator (Lite mode) build 49521"
  3399                           
  3400  00038A                     i2l1222:
  3401                           opt subtitle "HI-TECH Software Omniscient Code Generator (Lite mode) build 49521"
  3402  00038A  0E00               	movlw	low(0)
  3403  00038C  6E44               	movwf	((c:_ELEV_n)),c	;volatile
  3404  00038E  D000               	goto	i2l1224
  3405                           opt subtitle "HI-TECH Software Omniscient Code Generator (Lite mode) build 49521"
  3406                           
  3407  000390                     i2l235:
  3408                           opt subtitle "HI-TECH Software Omniscient Code Generator (Lite mode) build 49521"
  3409                           
  3410  000390                     i2l1224:
  3411                           opt subtitle "HI-TECH Software Omniscient Code Generator (Lite mode) build 49521"
  3412                           
  3413  000390  5052               	movf	((c:_GEAR_PWM_REG+1)),c,w	;volatile
  3414  000392  1812               	xorwf	((c:_count+1)),c,w	;volatile
  3415  000394  E102               	bnz	i2u35_45
  3416  000396  5051               	movf	((c:_GEAR_PWM_REG)),c,w	;volatile
  3417  000398  1811               	xorwf	((c:_count)),c,w	;volatile
  3418  00039A                     i2u35_45:
  3419                           opt subtitle "HI-TECH Software Omniscient Code Generator (Lite mode) build 49521"
  3420  00039A  A4D8               	btfss	status,2
  3421  00039C  D001               	goto	i2u35_41
  3422  00039E  D001               	goto	i2u35_40
  3423  0003A0                     i2u35_41:
  3424  0003A0  D004               	goto	i2l1230
  3425  0003A2                     i2u35_40:
  3426                           opt subtitle "HI-TECH Software Omniscient Code Generator (Lite mode) build 49521"
  3427                           
  3428  0003A2                     i2l1226:
  3429                           opt subtitle "HI-TECH Software Omniscient Code Generator (Lite mode) build 49521"
  3430  0003A2  9847               	bcf	(0+(4/8)+(c:_PWM_SET)),c,(4)&7	;volatile
  3431                           opt subtitle "HI-TECH Software Omniscient Code Generator (Lite mode) build 49521"
  3432                           
  3433  0003A4                     i2l1228:
  3434                           opt subtitle "HI-TECH Software Omniscient Code Generator (Lite mode) build 49521"
  3435  0003A4  0E00               	movlw	low(0)
  3436  0003A6  6E46               	movwf	((c:_GEAR_n)),c	;volatile
  3437  0003A8  D000               	goto	i2l1230
  3438                           opt subtitle "HI-TECH Software Omniscient Code Generator (Lite mode) build 49521"
  3439                           
  3440  0003AA                     i2l236:
  3441                           opt subtitle "HI-TECH Software Omniscient Code Generator (Lite mode) build 49521"
  3442                           
  3443  0003AA                     i2l1230:
  3444                           opt subtitle "HI-TECH Software Omniscient Code Generator (Lite mode) build 49521"
  3445                           
  3446  0003AA  504C               	movf	((c:_AUX_PWM_REG+1)),c,w	;volatile
  3447  0003AC  1812               	xorwf	((c:_count+1)),c,w	;volatile
  3448  0003AE  E102               	bnz	i2u36_45
  3449  0003B0  504B               	movf	((c:_AUX_PWM_REG)),c,w	;volatile
  3450  0003B2  1811               	xorwf	((c:_count)),c,w	;volatile
  3451  0003B4                     i2u36_45:
  3452                           opt subtitle "HI-TECH Software Omniscient Code Generator (Lite mode) build 49521"
  3453  0003B4  A4D8               	btfss	status,2
  3454  0003B6  D001               	goto	i2u36_41
  3455  0003B8  D001               	goto	i2u36_40
  3456  0003BA                     i2u36_41:
  3457  0003BA  D005               	goto	i2l216
  3458  0003BC                     i2u36_40:
  3459                           opt subtitle "HI-TECH Software Omniscient Code Generator (Lite mode) build 49521"
  3460                           
  3461  0003BC                     i2l1232:
  3462                           opt subtitle "HI-TECH Software Omniscient Code Generator (Lite mode) build 49521"
  3463  0003BC  9A47               	bcf	(0+(5/8)+(c:_PWM_SET)),c,(5)&7	;volatile
  3464                           opt subtitle "HI-TECH Software Omniscient Code Generator (Lite mode) build 49521"
  3465                           
  3466  0003BE                     i2l1234:
  3467                           opt subtitle "HI-TECH Software Omniscient Code Generator (Lite mode) build 49521"
  3468  0003BE  0E00               	movlw	low(0)
  3469  0003C0  6E43               	movwf	((c:_AUX_n)),c	;volatile
  3470  0003C2  D001               	goto	i2l216
  3471                           opt subtitle "HI-TECH Software Omniscient Code Generator (Lite mode) build 49521"
  3472                           
  3473  0003C4                     i2l237:
  3474  0003C4  D000               	goto	i2l216
  3475                           opt subtitle "HI-TECH Software Omniscient Code Generator (Lite mode) build 49521"
  3476                           
  3477  0003C6                     i2l230:
  3478                           opt subtitle "HI-TECH Software Omniscient Code Generator (Lite mode) build 49521"
  3479                           
  3480  0003C6                     i2l216:
  3481  0003C6  C036  FFF5         	movff	??_InterruptHandlerHigh+14,tablat+0
  3482  0003CA  C035  FFF8         	movff	??_InterruptHandlerHigh+13,tblptru+0
  3483  0003CE  C034  FFF7         	movff	??_InterruptHandlerHigh+12,tblptrh+0
  3484  0003D2  C033  FFF6         	movff	??_InterruptHandlerHigh+11,tblptrl+0
  3485  0003D6  C032  FFF4         	movff	??_InterruptHandlerHigh+10,prodh+0
  3486  0003DA  C031  FFF3         	movff	??_InterruptHandlerHigh+9,prodl+0
  3487  0003DE  C030  FFDA         	movff	??_InterruptHandlerHigh+8,fsr2h+0
  3488  0003E2  C02F  FFD9         	movff	??_InterruptHandlerHigh+7,fsr2l+0
  3489  0003E6  C02E  FFE2         	movff	??_InterruptHandlerHigh+6,fsr1h+0
  3490  0003EA  C02D  FFE1         	movff	??_InterruptHandlerHigh+5,fsr1l+0
  3491  0003EE  C02C  FFEA         	movff	??_InterruptHandlerHigh+4,fsr0h+0
  3492  0003F2  C02B  FFE9         	movff	??_InterruptHandlerHigh+3,fsr0l+0
  3493  0003F6  C02A  FFFB         	movff	??_InterruptHandlerHigh+2,pclat+1
  3494  0003FA  C029  FFFA         	movff	??_InterruptHandlerHigh+1,pclat+0
  3495  0003FE  0011               	retfie f
  3496                           opt subtitle "HI-TECH Software Omniscient Code Generator (Lite mode) build 49521"
  3497                           
  3498  000400                     	__end_of_InterruptHandlerHigh:
  3499                           opt subtitle "HI-TECH Software Omniscient Code Generator (Lite mode) build 49521"
  3500                           
  3501                           opt pagewidth 120
  3502                           
  3503                           	opt lm
  3504                           
  3505                           	processor	18F26K22
  3506                           porta	equ	0F80h
  3507                           portb	equ	0F81h
  3508                           portc	equ	0F82h
  3509                           portd	equ	0F83h
  3510                           porte	equ	0F84h
  3511                           lata	equ	0F89h
  3512                           latb	equ	0F8Ah
  3513                           latc	equ	0F8Bh
  3514                           latd	equ	0F8Ch
  3515                           late	equ	0F8Dh
  3516                           trisa	equ	0F92h
  3517                           trisb	equ	0F93h
  3518                           trisc	equ	0F94h
  3519                           trisd	equ	0F95h
  3520                           trise	equ	0F96h
  3521                           pie1	equ	0F9Dh
  3522                           pir1	equ	0F9Eh
  3523                           ipr1	equ	0F9Fh
  3524                           pie2	equ	0FA0h
  3525                           pir2	equ	0FA1h
  3526                           ipr2	equ	0FA2h
  3527                           t3con	equ	0FB1h
  3528                           tmr3l	equ	0FB2h
  3529                           tmr3h	equ	0FB3h
  3530                           ccp1con	equ	0FBDh
  3531                           ccpr1l	equ	0FBEh
  3532  000662                     __ptext7:
  3533                           opt subtitle "HI-TECH Software Omniscient Code Generator (Lite mode) build 49521"
  3534                           
  3535                           opt pagewidth 120
  3536                           
  3537  0000                     	__size_of_SETUP_swI2C_intOff	equ	__end_of_SETUP_swI2C_intOff-_SETUP_swI2C_intOff
  3538                           opt subtitle "HI-TECH Software Omniscient Code Generator (Lite mode) build 49521"
  3539  000662                     _SETUP_swI2C_intOff:
  3540                           opt subtitle "HI-TECH Software Omniscient Code Generator (Lite mode) build 49521"
  3541                           
  3542                           opt pagewidth 120
  3543  000662                     i2l980:
  3544                           opt subtitle "HI-TECH Software Omniscient Code Generator (Lite mode) build 49521"
  3545  000662  969E               	bcf	((c:3998)),c,3	;volatile
  3546                           opt subtitle "HI-TECH Software Omniscient Code Generator (Lite mode) build 49521"
  3547                           
  3548  000664  969D               	bcf	((c:3997)),c,3	;volatile
  3549                           opt subtitle "HI-TECH Software Omniscient Code Generator (Lite mode) build 49521"
  3550                           
  3551  000666                     i2l83:
  3552  000666  0012               	return
  3553                           opt subtitle "HI-TECH Software Omniscient Code Generator (Lite mode) build 49521"
  3554                           
  3555  000668                     	__end_of_SETUP_swI2C_intOff:
  3556                           opt subtitle "HI-TECH Software Omniscient Code Generator (Lite mode) build 49521"
  3557                           
  3558                           opt pagewidth 120
  3559                           
  3560                           	opt lm
  3561                           
  3562                           	processor	18F26K22
  3563                           porta	equ	0F80h
  3564                           portb	equ	0F81h
  3565                           portc	equ	0F82h
  3566                           portd	equ	0F83h
  3567                           porte	equ	0F84h
  3568                           lata	equ	0F89h
  3569                           latb	equ	0F8Ah
  3570                           latc	equ	0F8Bh
  3571                           latd	equ	0F8Ch
  3572                           late	equ	0F8Dh
  3573                           trisa	equ	0F92h
  3574                           trisb	equ	0F93h
  3575                           trisc	equ	0F94h
  3576                           trisd	equ	0F95h
  3577                           trise	equ	0F96h
  3578                           pie1	equ	0F9Dh
  3579                           pir1	equ	0F9Eh
  3580                           ipr1	equ	0F9Fh
  3581                           pie2	equ	0FA0h
  3582                           pir2	equ	0FA1h
  3583                           ipr2	equ	0FA2h
  3584                           t3con	equ	0FB1h
  3585                           tmr3l	equ	0FB2h
  3586                           tmr3h	equ	0FB3h
  3587                           ccp1con	equ	0FBDh
  3588                           ccpr1l	equ	0FBEh
  3589  000668                     __ptext8:
  3590                           opt subtitle "HI-TECH Software Omniscient Code Generator (Lite mode) build 49521"
  3591                           
  3592                           opt pagewidth 120
  3593                           
  3594  0000                     	__size_of_SETUP_releaseI2C	equ	__end_of_SETUP_releaseI2C-_SETUP_releaseI2C
  3595                           opt subtitle "HI-TECH Software Omniscient Code Generator (Lite mode) build 49521"
  3596  000668                     _SETUP_releaseI2C:
  3597                           opt subtitle "HI-TECH Software Omniscient Code Generator (Lite mode) build 49521"
  3598                           
  3599                           opt pagewidth 120
  3600  000668                     i2l982:
  3601                           opt subtitle "HI-TECH Software Omniscient Code Generator (Lite mode) build 49521"
  3602  000668  88C6               	bsf	((c:4038)),c,4	;volatile
  3603                           opt subtitle "HI-TECH Software Omniscient Code Generator (Lite mode) build 49521"
  3604                           
  3605  00066A  969E               	bcf	((c:3998)),c,3	;volatile
  3606                           opt subtitle "HI-TECH Software Omniscient Code Generator (Lite mode) build 49521"
  3607                           
  3608  00066C                     i2l86:
  3609  00066C  0012               	return
  3610                           opt subtitle "HI-TECH Software Omniscient Code Generator (Lite mode) build 49521"
  3611                           
  3612  00066E                     	__end_of_SETUP_releaseI2C:
  3613                           opt subtitle "HI-TECH Software Omniscient Code Generator (Lite mode) build 49521"
  3614                           
  3615                           opt pagewidth 120
  3616                           
  3617                           	opt lm
  3618                           
  3619                           	processor	18F26K22
  3620                           porta	equ	0F80h
  3621                           portb	equ	0F81h
  3622                           portc	equ	0F82h
  3623                           portd	equ	0F83h
  3624                           porte	equ	0F84h
  3625                           lata	equ	0F89h
  3626                           latb	equ	0F8Ah
  3627                           latc	equ	0F8Bh
  3628                           latd	equ	0F8Ch
  3629                           late	equ	0F8Dh
  3630                           trisa	equ	0F92h
  3631                           trisb	equ	0F93h
  3632                           trisc	equ	0F94h
  3633                           trisd	equ	0F95h
  3634                           trise	equ	0F96h
  3635                           pie1	equ	0F9Dh
  3636                           pir1	equ	0F9Eh
  3637                           ipr1	equ	0F9Fh
  3638                           pie2	equ	0FA0h
  3639                           pir2	equ	0FA1h
  3640                           ipr2	equ	0FA2h
  3641                           t3con	equ	0FB1h
  3642                           tmr3l	equ	0FB2h
  3643                           tmr3h	equ	0FB3h
  3644                           ccp1con	equ	0FBDh
  3645                           ccpr1l	equ	0FBEh
  3646  000648                     __ptext9:
  3647                           opt subtitle "HI-TECH Software Omniscient Code Generator (Lite mode) build 49521"
  3648                           
  3649                           opt pagewidth 120
  3650                           
  3651  0000                     	__size_of_SETUP_T0_activate	equ	__end_of_SETUP_T0_activate-_SETUP_T0_activate
  3652                           opt subtitle "HI-TECH Software Omniscient Code Generator (Lite mode) build 49521"
  3653  000648                     _SETUP_T0_activate:
  3654                           opt subtitle "HI-TECH Software Omniscient Code Generator (Lite mode) build 49521"
  3655                           
  3656                           opt pagewidth 120
  3657  000648                     i2l990:
  3658                           opt subtitle "HI-TECH Software Omniscient Code Generator (Lite mode) build 49521"
  3659  000648  C01F  FFD6         	movff	(c:SETUP_T0_activate@TIMER_MATCH),(c:4054)	;volatile
  3660                           opt subtitle "HI-TECH Software Omniscient Code Generator (Lite mode) build 49521"
  3661                           
  3662  00064C  8ED5               	bsf	((c:4053)),c,7	;volatile
  3663                           opt subtitle "HI-TECH Software Omniscient Code Generator (Lite mode) build 49521"
  3664                           
  3665  00064E  8AF2               	bsf	((c:4082)),c,5	;volatile
  3666                           opt subtitle "HI-TECH Software Omniscient Code Generator (Lite mode) build 49521"
  3667                           
  3668  000650  94F2               	bcf	((c:4082)),c,2	;volatile
  3669                           opt subtitle "HI-TECH Software Omniscient Code Generator (Lite mode) build 49521"
  3670                           
  3671  000652                     i2l92:
  3672  000652  0012               	return
  3673                           opt subtitle "HI-TECH Software Omniscient Code Generator (Lite mode) build 49521"
  3674                           
  3675  000654                     	__end_of_SETUP_T0_activate:
  3676                           opt subtitle "HI-TECH Software Omniscient Code Generator (Lite mode) build 49521"
  3677                           
  3678                           opt pagewidth 120
  3679                           
  3680                           	opt lm
  3681                           
  3682                           	processor	18F26K22
  3683                           porta	equ	0F80h
  3684                           portb	equ	0F81h
  3685                           portc	equ	0F82h
  3686                           portd	equ	0F83h
  3687                           porte	equ	0F84h
  3688                           lata	equ	0F89h
  3689                           latb	equ	0F8Ah
  3690                           latc	equ	0F8Bh
  3691                           latd	equ	0F8Ch
  3692                           late	equ	0F8Dh
  3693                           trisa	equ	0F92h
  3694                           trisb	equ	0F93h
  3695                           trisc	equ	0F94h
  3696                           trisd	equ	0F95h
  3697                           trise	equ	0F96h
  3698                           pie1	equ	0F9Dh
  3699                           pir1	equ	0F9Eh
  3700                           ipr1	equ	0F9Fh
  3701                           pie2	equ	0FA0h
  3702                           pir2	equ	0FA1h
  3703                           ipr2	equ	0FA2h
  3704                           t3con	equ	0FB1h
  3705                           tmr3l	equ	0FB2h
  3706                           tmr3h	equ	0FB3h
  3707                           ccp1con	equ	0FBDh
  3708                           ccpr1l	equ	0FBEh
  3709  000654                     __ptext10:
  3710                           opt subtitle "HI-TECH Software Omniscient Code Generator (Lite mode) build 49521"
  3711                           
  3712                           opt pagewidth 120
  3713                           
  3714  0000                     	__size_of_SETUP_T0_deactivate	equ	__end_of_SETUP_T0_deactivate-_SETUP_T0_deactivate
  3715                           opt subtitle "HI-TECH Software Omniscient Code Generator (Lite mode) build 49521"
  3716  000654                     _SETUP_T0_deactivate:
  3717                           opt subtitle "HI-TECH Software Omniscient Code Generator (Lite mode) build 49521"
  3718                           
  3719                           opt pagewidth 120
  3720  000654                     i2l992:
  3721                           opt subtitle "HI-TECH Software Omniscient Code Generator (Lite mode) build 49521"
  3722  000654  9ED5               	bcf	((c:4053)),c,7	;volatile
  3723                           opt subtitle "HI-TECH Software Omniscient Code Generator (Lite mode) build 49521"
  3724                           
  3725  000656  94F2               	bcf	((c:4082)),c,2	;volatile
  3726                           opt subtitle "HI-TECH Software Omniscient Code Generator (Lite mode) build 49521"
  3727                           
  3728  000658  9AF2               	bcf	((c:4082)),c,5	;volatile
  3729                           opt subtitle "HI-TECH Software Omniscient Code Generator (Lite mode) build 49521"
  3730                           
  3731  00065A                     i2l95:
  3732  00065A  0012               	return
  3733                           opt subtitle "HI-TECH Software Omniscient Code Generator (Lite mode) build 49521"
  3734                           
  3735  00065C                     	__end_of_SETUP_T0_deactivate:
  3736                           opt subtitle "HI-TECH Software Omniscient Code Generator (Lite mode) build 49521"
  3737                           
  3738                           opt pagewidth 120
  3739                           
  3740                           	opt lm
  3741                           
  3742                           	processor	18F26K22
  3743                           porta	equ	0F80h
  3744                           portb	equ	0F81h
  3745                           portc	equ	0F82h
  3746                           portd	equ	0F83h
  3747                           porte	equ	0F84h
  3748                           lata	equ	0F89h
  3749                           latb	equ	0F8Ah
  3750                           latc	equ	0F8Bh
  3751                           latd	equ	0F8Ch
  3752                           late	equ	0F8Dh
  3753                           trisa	equ	0F92h
  3754                           trisb	equ	0F93h
  3755                           trisc	equ	0F94h
  3756                           trisd	equ	0F95h
  3757                           trise	equ	0F96h
  3758                           pie1	equ	0F9Dh
  3759                           pir1	equ	0F9Eh
  3760                           ipr1	equ	0F9Fh
  3761                           pie2	equ	0FA0h
  3762                           pir2	equ	0FA1h
  3763                           ipr2	equ	0FA2h
  3764                           t3con	equ	0FB1h
  3765                           tmr3l	equ	0FB2h
  3766                           tmr3h	equ	0FB3h
  3767                           ccp1con	equ	0FBDh
  3768                           ccpr1l	equ	0FBEh
  3769                           ccpr1h	equ	0FBFh
  3770                           adcon1	equ	0FC1h
  3771                           adcon0	equ	0FC2h
  3772  0004C8                     __ptext11:
  3773                           opt subtitle "HI-TECH Software Omniscient Code Generator (Lite mode) build 49521"
  3774                           
  3775                           opt pagewidth 120
  3776                           
  3777  0000                     	__size_of___awdiv	equ	__end_of___awdiv-___awdiv
  3778                           opt subtitle "HI-TECH Software Omniscient Code Generator (Lite mode) build 49521"
  3779  0004C8                     ___awdiv:
  3780                           opt subtitle "HI-TECH Software Omniscient Code Generator (Lite mode) build 49521"
  3781                           
  3782                           opt pagewidth 120
  3783  0004C8                     i2l1024:
  3784  0004C8  6E23               	movwf	(??___awdiv+0+0)&0ffh,c
  3785  0004CA  0E00               	movlw	low(0)
  3786  0004CC  6E25               	movwf	((c:___awdiv@sign)),c
  3787  0004CE  5023               	movf	(??___awdiv+0+0)&0ffh,c,w
  3788                           opt subtitle "HI-TECH Software Omniscient Code Generator (Lite mode) build 49521"
  3789                           
  3790  0004D0                     i2l1026:
  3791  0004D0  AE22               	btfss	((c:___awdiv@divisor+1)),c,7
  3792  0004D2  D001               	goto	i2u4_41
  3793  0004D4  D001               	goto	i2u4_40
  3794  0004D6                     i2u4_41:
  3795  0004D6  D009               	goto	i2l1032
  3796  0004D8                     i2u4_40:
  3797                           opt subtitle "HI-TECH Software Omniscient Code Generator (Lite mode) build 49521"
  3798                           
  3799  0004D8                     i2l1028:
  3800  0004D8  6C21               	negf	((c:___awdiv@divisor)),c
  3801  0004DA  1E22               	comf	((c:___awdiv@divisor+1)),c
  3802  0004DC  B0D8               	btfsc	status,0
  3803  0004DE  2A22               	incf	((c:___awdiv@divisor+1)),c
  3804                           opt subtitle "HI-TECH Software Omniscient Code Generator (Lite mode) build 49521"
  3805                           
  3806  0004E0                     i2l1030:
  3807  0004E0  6E23               	movwf	(??___awdiv+0+0)&0ffh,c
  3808  0004E2  0E01               	movlw	low(01h)
  3809  0004E4  6E25               	movwf	((c:___awdiv@sign)),c
  3810  0004E6  5023               	movf	(??___awdiv+0+0)&0ffh,c,w
  3811  0004E8  D000               	goto	i2l1032
  3812                           opt subtitle "HI-TECH Software Omniscient Code Generator (Lite mode) build 49521"
  3813                           
  3814  0004EA                     i2l357:
  3815                           opt subtitle "HI-TECH Software Omniscient Code Generator (Lite mode) build 49521"
  3816                           
  3817  0004EA                     i2l1032:
  3818  0004EA  AE20               	btfss	((c:___awdiv@dividend+1)),c,7
  3819  0004EC  D001               	goto	i2u5_41
  3820  0004EE  D001               	goto	i2u5_40
  3821  0004F0                     i2u5_41:
  3822  0004F0  D007               	goto	i2l1038
  3823  0004F2                     i2u5_40:
  3824                           opt subtitle "HI-TECH Software Omniscient Code Generator (Lite mode) build 49521"
  3825                           
  3826  0004F2                     i2l1034:
  3827  0004F2  6C1F               	negf	((c:___awdiv@dividend)),c
  3828  0004F4  1E20               	comf	((c:___awdiv@dividend+1)),c
  3829  0004F6  B0D8               	btfsc	status,0
  3830  0004F8  2A20               	incf	((c:___awdiv@dividend+1)),c
  3831                           opt subtitle "HI-TECH Software Omniscient Code Generator (Lite mode) build 49521"
  3832                           
  3833  0004FA                     i2l1036:
  3834  0004FA  0E01               	movlw	(01h)&0ffh
  3835  0004FC  1A25               	xorwf	((c:___awdiv@sign)),c
  3836  0004FE  D000               	goto	i2l1038
  3837                           opt subtitle "HI-TECH Software Omniscient Code Generator (Lite mode) build 49521"
  3838                           
  3839  000500                     i2l358:
  3840                           opt subtitle "HI-TECH Software Omniscient Code Generator (Lite mode) build 49521"
  3841                           
  3842  000500                     i2l1038:
  3843  000500  0E00               	movlw	high(0)
  3844  000502  6E27               	movwf	((c:___awdiv@quotient+1)),c
  3845  000504  0E00               	movlw	low(0)
  3846  000506  6E26               	movwf	((c:___awdiv@quotient)),c
  3847                           opt subtitle "HI-TECH Software Omniscient Code Generator (Lite mode) build 49521"
  3848                           
  3849  000508                     i2l1040:
  3850  000508  5022               	movf	((c:___awdiv@divisor+1)),c,w
  3851  00050A  1021               	iorwf ((c:___awdiv@divisor)),c,w
  3852                           opt subtitle "HI-TECH Software Omniscient Code Generator (Lite mode) build 49521"
  3853  00050C  B4D8               	btfsc	status,2
  3854  00050E  D001               	goto	i2u6_41
  3855  000510  D001               	goto	i2u6_40
  3856  000512                     i2u6_41:
  3857  000512  D028               	goto	i2l1060
  3858  000514                     i2u6_40:
  3859                           opt subtitle "HI-TECH Software Omniscient Code Generator (Lite mode) build 49521"
  3860                           
  3861  000514                     i2l1042:
  3862  000514  6E23               	movwf	(??___awdiv+0+0)&0ffh,c
  3863  000516  0E01               	movlw	low(01h)
  3864  000518  6E24               	movwf	((c:___awdiv@counter)),c
  3865  00051A  5023               	movf	(??___awdiv+0+0)&0ffh,c,w
  3866                           opt subtitle "HI-TECH Software Omniscient Code Generator (Lite mode) build 49521"
  3867  00051C  D005               	goto	i2l1046
  3868                           opt subtitle "HI-TECH Software Omniscient Code Generator (Lite mode) build 49521"
  3869  00051E                     i2l361:
  3870                           opt subtitle "HI-TECH Software Omniscient Code Generator (Lite mode) build 49521"
  3871                           
  3872  00051E                     i2l1044:
  3873  00051E  90D8               	bcf	status,0
  3874  000520  3621               	rlcf	((c:___awdiv@divisor)),c
  3875  000522  3622               	rlcf	((c:___awdiv@divisor+1)),c
  3876                           opt subtitle "HI-TECH Software Omniscient Code Generator (Lite mode) build 49521"
  3877  000524  2A24               	incf	((c:___awdiv@counter)),c
  3878  000526  D000               	goto	i2l1046
  3879                           opt subtitle "HI-TECH Software Omniscient Code Generator (Lite mode) build 49521"
  3880                           
  3881  000528                     i2l360:
  3882                           opt subtitle "HI-TECH Software Omniscient Code Generator (Lite mode) build 49521"
  3883                           
  3884  000528                     i2l1046:
  3885                           opt subtitle "HI-TECH Software Omniscient Code Generator (Lite mode) build 49521"
  3886  000528  AE22               	btfss	((c:___awdiv@divisor+1)),c,(15)&7
  3887  00052A  D001               	goto	i2u7_41
  3888  00052C  D001               	goto	i2u7_40
  3889  00052E                     i2u7_41:
  3890  00052E  D7F7               	goto	i2l1044
  3891  000530                     i2u7_40:
  3892  000530  D001               	goto	i2l1048
  3893                           opt subtitle "HI-TECH Software Omniscient Code Generator (Lite mode) build 49521"
  3894  000532                     i2l362:
  3895  000532  D000               	goto	i2l1048
  3896                           opt subtitle "HI-TECH Software Omniscient Code Generator (Lite mode) build 49521"
  3897                           
  3898  000534                     i2l363:
  3899                           opt subtitle "HI-TECH Software Omniscient Code Generator (Lite mode) build 49521"
  3900                           
  3901  000534                     i2l1048:
  3902  000534  90D8               	bcf	status,0
  3903  000536  3626               	rlcf	((c:___awdiv@quotient)),c
  3904  000538  3627               	rlcf	((c:___awdiv@quotient+1)),c
  3905                           opt subtitle "HI-TECH Software Omniscient Code Generator (Lite mode) build 49521"
  3906                           
  3907  00053A                     i2l1050:
  3908  00053A  5021               	movf	((c:___awdiv@divisor)),c,w
  3909  00053C  5C1F               	subwf	((c:___awdiv@dividend)),c,w
  3910  00053E  5022               	movf	((c:___awdiv@divisor+1)),c,w
  3911  000540  5820               	subwfb	((c:___awdiv@dividend+1)),c,w
  3912  000542  A0D8               	btfss	status,0
  3913  000544  D001               	goto	i2u8_41
  3914  000546  D001               	goto	i2u8_40
  3915  000548                     i2u8_41:
  3916  000548  D006               	goto	i2l1056
  3917  00054A                     i2u8_40:
  3918                           opt subtitle "HI-TECH Software Omniscient Code Generator (Lite mode) build 49521"
  3919                           
  3920  00054A                     i2l1052:
  3921  00054A  5021               	movf	((c:___awdiv@divisor)),c,w
  3922  00054C  5E1F               	subwf	((c:___awdiv@dividend)),c
  3923  00054E  5022               	movf	((c:___awdiv@divisor+1)),c,w
  3924  000550  5A20               	subwfb	((c:___awdiv@dividend+1)),c
  3925                           opt subtitle "HI-TECH Software Omniscient Code Generator (Lite mode) build 49521"
  3926                           
  3927                           opt pagewidth 120
  3928  000552                     i2l1054:
  3929  000552  8026               	bsf	(0+(0/8)+(c:___awdiv@quotient)),c,(0)&7
  3930  000554  D000               	goto	i2l1056
  3931                           opt subtitle "HI-TECH Software Omniscient Code Generator (Lite mode) build 49521"
  3932                           
  3933  000556                     i2l364:
  3934                           opt subtitle "HI-TECH Software Omniscient Code Generator (Lite mode) build 49521"
  3935                           
  3936  000556                     i2l1056:
  3937  000556  90D8               	bcf	status,0
  3938  000558  3222               	rrcf	((c:___awdiv@divisor+1)),c
  3939  00055A  3221               	rrcf	((c:___awdiv@divisor)),c
  3940                           opt subtitle "HI-TECH Software Omniscient Code Generator (Lite mode) build 49521"
  3941                           
  3942  00055C                     i2l1058:
  3943  00055C  2E24               	decfsz	((c:___awdiv@counter)),c
  3944                           opt subtitle "HI-TECH Software Omniscient Code Generator (Lite mode) build 49521"
  3945  00055E  D7EA               	goto	i2l1048
  3946  000560  D001               	goto	i2l1060
  3947                           opt subtitle "HI-TECH Software Omniscient Code Generator (Lite mode) build 49521"
  3948  000562                     i2l365:
  3949  000562  D000               	goto	i2l1060
  3950                           opt subtitle "HI-TECH Software Omniscient Code Generator (Lite mode) build 49521"
  3951                           
  3952  000564                     i2l359:
  3953                           opt subtitle "HI-TECH Software Omniscient Code Generator (Lite mode) build 49521"
  3954                           
  3955  000564                     i2l1060:
  3956  000564  5025               	movf	((c:___awdiv@sign)),c,w
  3957  000566  B4D8               	btfsc	status,2
  3958  000568  D001               	goto	i2u9_41
  3959  00056A  D001               	goto	i2u9_40
  3960  00056C                     i2u9_41:
  3961  00056C  D005               	goto	i2l1064
  3962  00056E                     i2u9_40:
  3963                           opt subtitle "HI-TECH Software Omniscient Code Generator (Lite mode) build 49521"
  3964                           
  3965  00056E                     i2l1062:
  3966  00056E  6C26               	negf	((c:___awdiv@quotient)),c
  3967  000570  1E27               	comf	((c:___awdiv@quotient+1)),c
  3968  000572  B0D8               	btfsc	status,0
  3969  000574  2A27               	incf	((c:___awdiv@quotient+1)),c
  3970  000576  D000               	goto	i2l1064
  3971                           opt subtitle "HI-TECH Software Omniscient Code Generator (Lite mode) build 49521"
  3972  000578                     i2l366:
  3973                           opt subtitle "HI-TECH Software Omniscient Code Generator (Lite mode) build 49521"
  3974                           
  3975  000578                     i2l1064:
  3976  000578  C026  F01F         	movff	(c:___awdiv@quotient),(c:?___awdiv)
  3977  00057C  C027  F020         	movff	(c:___awdiv@quotient+1),(c:?___awdiv+1)
  3978  000580  D000               	goto	i2l367
  3979                           opt subtitle "HI-TECH Software Omniscient Code Generator (Lite mode) build 49521"
  3980  000582                     i2l1066:
  3981                           opt subtitle "HI-TECH Software Omniscient Code Generator (Lite mode) build 49521"
  3982                           
  3983  000582                     i2l367:
  3984  000582  0012               	return
  3985                           opt subtitle "HI-TECH Software Omniscient Code Generator (Lite mode) build 49521"
  3986                           
  3987  000584                     	__end_of___awdiv:
  3988                           opt subtitle "HI-TECH Software Omniscient Code Generator (Lite mode) build 49521"
  3989                           
  3990                           opt pagewidth 120
  3991                           
  3992                           	opt lm
  3993                           
  3994                           	processor	18F26K22
  3995                           porta	equ	0F80h
  3996                           portb	equ	0F81h
  3997                           portc	equ	0F82h
  3998                           portd	equ	0F83h
  3999                           porte	equ	0F84h
  4000                           lata	equ	0F89h
  4001                           latb	equ	0F8Ah
  4002                           latc	equ	0F8Bh
  4003                           latd	equ	0F8Ch
  4004                           late	equ	0F8Dh
  4005                           trisa	equ	0F92h
  4006                           trisb	equ	0F93h
  4007                           trisc	equ	0F94h
  4008                           trisd	equ	0F95h
  4009                           trise	equ	0F96h
  4010                           pie1	equ	0F9Dh
  4011                           pir1	equ	0F9Eh
  4012                           ipr1	equ	0F9Fh
  4013                           pie2	equ	0FA0h
  4014                           pir2	equ	0FA1h
  4015                           ipr2	equ	0FA2h
  4016                           t3con	equ	0FB1h
  4017                           tmr3l	equ	0FB2h
  4018                           tmr3h	equ	0FB3h
  4019                           ccp1con	equ	0FBDh
  4020                           ccpr1l	equ	0FBEh
  4021  00066E                     __ptext12:
  4022                           opt subtitle "HI-TECH Software Omniscient Code Generator (Lite mode) build 49521"
  4023                           
  4024                           opt pagewidth 120
  4025                           
  4026  0000                     	__size_ofi2_SETUP_swI2C_intOn	equ	__end_ofi2_SETUP_swI2C_intOn-i2_SETUP_swI2C_intOn
  4027                           opt subtitle "HI-TECH Software Omniscient Code Generator (Lite mode) build 49521"
  4028  00066E                     i2_SETUP_swI2C_intOn:
  4029                           opt subtitle "HI-TECH Software Omniscient Code Generator (Lite mode) build 49521"
  4030                           
  4031                           opt pagewidth 120
  4032  00066E                     i2l1070:
  4033                           opt subtitle "HI-TECH Software Omniscient Code Generator (Lite mode) build 49521"
  4034  00066E  969E               	bcf	((c:3998)),c,3	;volatile
  4035                           opt subtitle "HI-TECH Software Omniscient Code Generator (Lite mode) build 49521"
  4036                           
  4037  000670  869D               	bsf	((c:3997)),c,3	;volatile
  4038                           opt subtitle "HI-TECH Software Omniscient Code Generator (Lite mode) build 49521"
  4039                           
  4040  000672                     i2l80:
  4041  000672  0012               	return
  4042                           opt subtitle "HI-TECH Software Omniscient Code Generator (Lite mode) build 49521"
  4043                           
  4044  000674                     	__end_ofi2_SETUP_swI2C_intOn:
  4045                           opt subtitle "HI-TECH Software Omniscient Code Generator (Lite mode) build 49521"
  4046                           
  4047  0000                     __activetblptr	EQU	0
  4048                           opt subtitle "HI-TECH Software Omniscient Code Generator (Lite mode) build 49521"
  4049                           
  4050                           opt pagewidth 120
  4051  000000                     __ptext13:
  4052                           opt subtitle "HI-TECH Software Omniscient Code Generator (Lite mode) build 49521"
  4053                           
  4054                           opt pagewidth 120
  4055                           
  4056                           	opt lm
  4057  0000                     __Lparam	EQU	__Lrparam
  4058  0000                     __Hparam	EQU	__Hrparam


Data Sizes:
    Strings     0
    Constant    0
    Data        13
    BSS         30
    Persistent  12
    Stack       0

Auto Spaces:
    Space          Size  Autos    Used
    COMRAM           95     29      84
    BANK0           160      0       0
    BANK1           256      0       0
    BANK2           256      0       0
    BANK3           256      0       0
    BANK4           256      0       0
    BANK5           256      0       0
    BANK6           256      0       0
    BANK7           256      0       0
    BANK8           256      0       0
    BANK9           256      0       0
    BANK10          256      0       0
    BANK11          256      0       0
    BANK12          256      0       0
    BANK13          256      0       0
    BANK14          256      0       0
    BANK15           56      0       0

Pointer List with Targets:

    ?___awdiv	int  size(2) Largest target is 0


Critical Paths under _main in COMRAM

    None.

Critical Paths under _InterruptHandlerHigh in COMRAM

    _InterruptHandlerHigh->___awdiv

Critical Paths under _main in BANK0

    None.

Critical Paths under _InterruptHandlerHigh in BANK0

    None.

Critical Paths under _main in BANK1

    None.

Critical Paths under _InterruptHandlerHigh in BANK1

    None.

Critical Paths under _main in BANK2

    None.

Critical Paths under _InterruptHandlerHigh in BANK2

    None.

Critical Paths under _main in BANK3

    None.

Critical Paths under _InterruptHandlerHigh in BANK3

    None.

Critical Paths under _main in BANK4

    None.

Critical Paths under _InterruptHandlerHigh in BANK4

    None.

Critical Paths under _main in BANK5

    None.

Critical Paths under _InterruptHandlerHigh in BANK5

    None.

Critical Paths under _main in BANK6

    None.

Critical Paths under _InterruptHandlerHigh in BANK6

    None.

Critical Paths under _main in BANK7

    None.

Critical Paths under _InterruptHandlerHigh in BANK7

    None.

Critical Paths under _main in BANK8

    None.

Critical Paths under _InterruptHandlerHigh in BANK8

    None.

Critical Paths under _main in BANK9

    None.

Critical Paths under _InterruptHandlerHigh in BANK9

    None.

Critical Paths under _main in BANK10

    None.

Critical Paths under _InterruptHandlerHigh in BANK10

    None.

Critical Paths under _main in BANK11

    None.

Critical Paths under _InterruptHandlerHigh in BANK11

    None.

Critical Paths under _main in BANK12

    None.

Critical Paths under _InterruptHandlerHigh in BANK12

    None.

Critical Paths under _main in BANK13

    None.

Critical Paths under _InterruptHandlerHigh in BANK13

    None.

Critical Paths under _main in BANK14

    None.

Critical Paths under _InterruptHandlerHigh in BANK14

    None.

Critical Paths under _main in BANK15

    None.

Critical Paths under _InterruptHandlerHigh in BANK15

    None.

Call Graph Tables:

 ---------------------------------------------------------------------------------
 (Depth) Function   	        Calls       Base Space   Used Autos Params    Refs
 ---------------------------------------------------------------------------------
 (0) _main                                                 4     4      0      30
                                             25 COMRAM     4     4      0
                        _SETUP_clock
                           _SETUP_io
                          _SETUP_i2c
                          _SETUP_PWM
                  _SETUP_swI2C_intOn
 ---------------------------------------------------------------------------------
 (1) _SETUP_clock                                          0     0      0       0
 ---------------------------------------------------------------------------------
 (1) _SETUP_io                                             0     0      0       0
 ---------------------------------------------------------------------------------
 (1) _SETUP_i2c                                            0     0      0       0
 ---------------------------------------------------------------------------------
 (1) _SETUP_swI2C_intOn                                    0     0      0       0
 ---------------------------------------------------------------------------------
 (1) _SETUP_PWM                                            0     0      0       0
 ---------------------------------------------------------------------------------
 Estimated maximum stack depth 1
 ---------------------------------------------------------------------------------
 (Depth) Function   	        Calls       Base Space   Used Autos Params    Refs
 ---------------------------------------------------------------------------------
 (2) _InterruptHandlerHigh                                16    16      0     225
                                              9 COMRAM    16    16      0
                   _SETUP_releaseI2C
                 _SETUP_swI2C_intOff
                            ___awdiv
                  _SETUP_T0_activate
                _SETUP_T0_deactivate
                i2_SETUP_swI2C_intOn
 ---------------------------------------------------------------------------------
 (3) _SETUP_swI2C_intOff                                   0     0      0       0
 ---------------------------------------------------------------------------------
 (3) _SETUP_releaseI2C                                     0     0      0       0
 ---------------------------------------------------------------------------------
 (3) _SETUP_T0_activate                                    1     0      1      15
                                              0 COMRAM     1     0      1
 ---------------------------------------------------------------------------------
 (3) _SETUP_T0_deactivate                                  0     0      0       0
 ---------------------------------------------------------------------------------
 (3) ___awdiv                                              9     5      4     195
                                              0 COMRAM     9     5      4
 ---------------------------------------------------------------------------------
 (3) i2_SETUP_swI2C_intOn                                  0     0      0       0
 ---------------------------------------------------------------------------------
 Estimated maximum stack depth 3
 ---------------------------------------------------------------------------------

 Call Graph Graphs:

 _main (ROOT)
   _SETUP_clock
   _SETUP_io
   _SETUP_i2c
   _SETUP_PWM
   _SETUP_swI2C_intOn

 _InterruptHandlerHigh (ROOT)
   _SETUP_releaseI2C
   _SETUP_swI2C_intOff
   ___awdiv
   _SETUP_T0_activate
   _SETUP_T0_deactivate
   i2_SETUP_swI2C_intOn

 Address spaces:
Name               Size   Autos  Total    Cost      Usage
BIGRAM             F37      0       0      37        0.0%
EEDATA             400      0       0       0        0.0%
BITBANK14          100      0       0      33        0.0%
BANK14             100      0       0      34        0.0%
BITBANK13          100      0       0      31        0.0%
BANK13             100      0       0      32        0.0%
BITBANK12          100      0       0      29        0.0%
BANK12             100      0       0      30        0.0%
BITBANK11          100      0       0      27        0.0%
BANK11             100      0       0      28        0.0%
BITBANK10          100      0       0      25        0.0%
BANK10             100      0       0      26        0.0%
BITBANK9           100      0       0      23        0.0%
BANK9              100      0       0      24        0.0%
BITBANK8           100      0       0      21        0.0%
BANK8              100      0       0      22        0.0%
BITBANK7           100      0       0      19        0.0%
BANK7              100      0       0      20        0.0%
BITBANK6           100      0       0      17        0.0%
BANK6              100      0       0      18        0.0%
BITBANK5           100      0       0      15        0.0%
BANK5              100      0       0      16        0.0%
BITBANK4           100      0       0      13        0.0%
BANK4              100      0       0      14        0.0%
BITBANK3           100      0       0      10        0.0%
BANK3              100      0       0      11        0.0%
BITBANK2           100      0       0       8        0.0%
BANK2              100      0       0       9        0.0%
BITBANK1           100      0       0       6        0.0%
BANK1              100      0       0       7        0.0%
BITBANK0            A0      0       0       4        0.0%
BANK0               A0      0       0       5        0.0%
BITCOMRAM           5F      0       0       0        0.0%
COMRAM              5F     1D      54       1       88.4%
BITBANK15           38      0       0      35        0.0%
BANK15              38      0       0      36        0.0%
BITSFR_1             0      0       0      40        0.0%
SFR_1                0      0       0      40        0.0%
BITSFR               0      0       0      40        0.0%
SFR                  0      0       0      40        0.0%
STACK                0      0       5       2        0.0%
NULL                 0      0       0       0        0.0%
ABS                  0      0      54      12        0.0%
DATA                 0      0      59       3        0.0%
CODE                 0      0       0       0        0.0%


Microchip Technology PIC18 Macro Assembler V1.12 build 49521 
Symbol Table                                                                                   Sat Aug 30 13:41:15 2014

                           l71 0638                             l80 0660                             l74 0610  
                           l77 062A                             u10 045E                             u11 045C  
                           u20 0492                             u21 0490                             u30 04BC  
                           u31 04BA                             u15 0456                             u25 048A  
                 ___awdiv@sign 0025                            l101 05C0                            l200 04C4  
                          l194 042E                            l195 0462                            l196 0494  
                          l197 04BE                            l198 04C2                            l199 04C4  
                          l940 062C                            l950 0602                            l942 0630  
                          l960 060C                            l952 0604                            l944 0636  
                          l970 061C                            l962 060E                            l954 0606  
                          l946 05F4                            l972 0624                            l964 0612  
                          l956 0608                            l948 05FC                            l974 0626  
                          l966 0616                            l958 060A                            l976 0628  
                          l968 061A                            l978 065C                            l996 0584  
                          l998 0588                            wreg 000FE8   __size_ofi2_SETUP_swI2C_intOn 0006  
                         l1000 0404                           l1010 0418                           l1002 0408  
                         l1020 0494                           l1012 041C                           l1004 040C  
                         l1022 04BC                           l1014 043E                           l1006 0414  
                         l1016 0460                           l1008 0416                           l1018 0462  
                __CFG_DEBUG$ON 000000                           i2l80 0672                           i2l83 0666  
                         i2l92 0652                           i2l86 066C                           i2l95 065A  
                         _main 0404                           fsr0h 000FEA                           fsr1h 000FE2  
                         fsr0l 000FE9                           fsr2h 000FDA                           fsr1l 000FE1  
                         indf2 000FDF                           fsr2l 000FD9                  __CFG_BORV$250 000000  
                         pclat 000FFA                           prodh 000FF4                           prodl 000FF3  
                         start 0400                  __CFG_IESO$OFF 000000               _percentActuation 003C  
     __end_of_SETUP_releaseI2C 066E                          ?_main 001F                __end_of___awdiv 0584  
                        _AIL_n 0042                          _T0CON 000FD5                ___awdiv@divisor 0021  
                        i2l210 02B4                          i2l211 01F2                          i2l220 0208  
                        i2l212 01DE                          i2l221 02B0                          i2l213 01D8  
                        i2l230 03C6                          i2l222 021A                          i2l214 01DC  
                        i2l231 0324                          i2l223 0228                          i2l215 01E4  
                        i2l207 02B6                          i2l232 0342                          i2l224 0236  
                        i2l216 03C6                          i2l208 007E                          _ESC_n 0045  
                        i2l233 035C                          i2l217 02B4                          i2l225 0244  
                        i2l209 007C                          i2l234 0376                          i2l218 02B2  
                        i2l226 0252                          i2l235 0390                          i2l219 027C  
                        i2l227 0260                          i2l236 03AA                          i2l228 026E  
                __CFG_WDTEN$ON 000000                          i2l237 03C4                          i2l229 0278  
                        i2l360 0528                          i2l361 051E                          i2l362 0532  
                        i2l363 0534                          i2l364 0556                          i2l365 0562  
                        i2l357 04EA                          i2l366 0578                          i2l358 0500  
                        i2l367 0582                          i2l359 0564                          i2l980 0662  
              ___awdiv@counter 0024                          _AUX_n 0043                          i2l990 0648  
                        i2l982 0668                          i2l992 0654                          _TMR0L 000FD6  
                        _TRISC 000F94             __size_of_SETUP_PWM 003E                 __CFG_FCMEN$OFF 000000  
           __size_of_SETUP_i2c 001A               __end_of_SETUP_io 0612                          _count 0011  
           __CFG_MCLRE$EXTMCLR 000000                          main@i 0038                          tablat 000FF5  
                        status 000FD8                __initialization 05C2                   __end_of_main 04C8  
           _SETUP_swI2C_intOff 0662                         ??_main 0038    __end_of_SETUP_T0_deactivate 065C  
                __activetblptr 000000     InterruptHandlerHigh@buffer 0037                 __CFG_PLLCFG$ON 000000  
           _AUX_PWM_BUFFER_REG 0007            ?_SETUP_swI2C_intOff 001F               ___awdiv@dividend 001F  
                       _ANSELB 000F39                         _ANSELC 000F3A                         _GEAR_n 0046  
                       _ELEV_n 0044                         i2l1100 00C6                         i2l1030 04E0  
                       i2l1110 015A                         i2l1102 00CA                         i2l1040 0508  
                       i2l1032 04EA                         i2l1024 04C8                         i2l1200 0328  
                       i2l1120 01CA                         i2l1112 017E                         i2l1104 00EE  
                       i2l1050 053A                         i2l1042 0514                         i2l1034 04F2  
                       i2l1026 04D0                         i2l1210 0356                         i2l1202 033A  
                       i2l1130 01F0                         i2l1122 01D4                         i2l1114 01A2  
                       i2l1106 0112                         i2l1052 054A                         i2l1044 051E  
                       i2l1060 0564                         i2l1036 04FA                         i2l1028 04D8  
                       i2l1220 0388                         i2l1212 035C                         i2l1204 033C  
                       i2l1140 0210                         i2l1132 01FA                         i2l1116 01AE  
                       i2l1108 0136                         i2l1124 01DE                         i2l1070 066E  
                       i2l1062 056E                         i2l1054 0552                         i2l1046 0528  
                       i2l1038 0500                         i2l1230 03AA                         i2l1222 038A  
                       i2l1214 036E                         i2l1206 0342                         i2l1150 0230  
                       i2l1142 0214                         i2l1134 0206                         i2l1126 01E2  
                       i2l1118 01C6                         i2l1064 0578                         i2l1056 0556  
                       i2l1048 0534                         i2l1232 03BC                         i2l1224 0390  
                       i2l1216 0370                         i2l1208 0354                         i2l1160 0256  
                       i2l1152 023A                         i2l1144 021E                         i2l1136 0208  
                       i2l1128 01EE                         i2l1080 0062                         i2l1072 0040  
                       i2l1066 0582                         i2l1058 055C                         i2l1234 03BE  
                       i2l1226 03A2                         i2l1218 0376                         i2l1170 027A  
                       i2l1162 025A                         i2l1154 023E                         i2l1146 0222  
                       i2l1138 020C                         i2l1090 008E                         i2l1082 0066  
                       i2l1074 0048                         i2l1228 03A4                         i2l1180 02CE  
                       i2l1164 0264                         i2l1156 0248                         i2l1148 022C  
                       i2l1172 027C                         i2l1092 0098                         i2l1084 006A  
                       i2l1076 0050                         i2l1190 0300                         i2l1182 02D8  
                       i2l1174 02BE                         i2l1166 0268                         i2l1158 024C  
                       i2l1094 009C                         i2l1086 0076                         i2l1078 005A  
                       i2l1192 030A                         i2l1184 02E2                         i2l1176 02C6  
                       i2l1168 0272                         i2l1096 00AA                         i2l1088 0086  
                       i2l1194 0312                         i2l1186 02EC                         i2l1178 02C8  
                       i2l1098 00C2                         i2l1196 031A                         i2l1188 02F6  
                       i2l1198 0324                 __CFG_WDTPS$128 000000                         i2u4_40 04D8  
                       i2u4_41 04D6                         i2u5_40 04F2                         i2u5_41 04F0  
                       i2u6_40 0514                         i2u6_41 0512                         i2u7_40 0530  
                       i2u7_41 052E                         i2u8_40 054A                         i2u8_41 0548  
                       i2u9_40 056E                         _RUDD_n 0048                         i2u9_41 056C  
                 ?_SETUP_clock 001F                 __CFG_PWRTEN$ON 000000           ??_SETUP_swI2C_intOff 001F  
            __end_of_SETUP_PWM 05C2              __end_of_SETUP_i2c 062C                      ??___awdiv 0023  
               __CFG_STVREN$ON 000000                         clear_0 05C8               ___awdiv@quotient 0026  
                 __pdataCOMRAM 003C                         tblptrh 000FF7                         tblptrl 000FF6  
                       tblptru 000FF8                     __accesstop 0060        __end_of__initialization 05EE  
              __CFG_PBADEN$OFF 000000          _RECEIVING_FROM_MASTER 0014            _GEAR_PWM_BUFFER_REG 000D  
          _ELEV_PWM_BUFFER_REG 0009            _RUDD_PWM_BUFFER_REG 000F                 __pcstackCOMRAM 001F  
                    ?_SETUP_io 001F            i2_SETUP_swI2C_intOn 066E                   _GEAR_PWM_REG 0051  
           _ESC_PWM_BUFFER_REG 000B                   _data_updated 0016  __size_of_InterruptHandlerHigh 03F8  
                   _dataBuffer 0017           ?i2_SETUP_swI2C_intOn 001F                     __pnvCOMRAM 0049  
           __CFG_CCP2MX$PORTB3 000000                     ??_SETUP_io 0038             __CFG_CCP3MX$PORTB5 000000  
                      _I2C_FSM 0013              ?_SETUP_releaseI2C 001F   SETUP_T0_activate@TIMER_MATCH 001F  
           ??_SETUP_releaseI2C 001F                        i2u10_40 0048                        i2u10_41 0046  
                      i2u11_40 0050                        i2u11_41 004E                        i2u20_40 01FA  
                      i2u12_40 005A                        i2u20_41 01F8                        i2u12_41 0058  
                      i2u21_40 0204                        i2u13_40 0062                        i2u21_41 0202  
                      i2u13_41 0060                        i2u30_40 0312                        i2u22_40 02BE  
                      i2u14_40 0076                        i2u30_41 0310                        i2u22_41 02BC  
                      i2u14_41 0074                        i2u31_40 033A                        i2u23_40 02C6  
                      i2u15_40 0086                        i2u31_41 0338                        i2u23_41 02C4  
                      i2u15_41 0084                        i2u31_45 0332                        i2u32_40 0354  
                      i2u16_40 008E                        i2u32_41 0352                        i2u16_41 008C  
                      i2u32_45 034C                        i2u24_45 02D6                        i2u24_46 02D8  
                      i2u33_40 036E                        i2u17_40 0098                        i2u33_41 036C  
                      i2u17_41 0096                        i2u33_45 0366                        i2u25_45 02E0  
                      i2u25_46 02E2                        i2u34_40 0388                        i2u18_40 00AA  
                      i2u34_41 0386                        i2u18_41 00A8                        i2u34_45 0380  
                      i2u26_45 02EA                        i2u26_46 02EC                        i2u35_40 03A2  
                      i2u19_40 01D4                        i2u35_41 03A0                        i2u19_41 01D2  
                      i2u35_45 039A                        i2u27_45 02F4                        i2u27_46 02F6  
                      i2u36_40 03BC                        i2u36_41 03BA                        i2u36_45 03B4  
                      i2u28_45 02FE                        i2u28_46 0300                        i2u29_45 0308  
                      i2u29_46 030A                        _SSP1ADD 000FC8                        _SSP1BUF 000FC9  
        ??i2_SETUP_swI2C_intOn 001F                        _PWM_SET 0047                   _ELEV_PWM_REG 004D  
                      __Hparam 0000                        __Lparam 0000           __size_of_SETUP_clock 000E  
                      ___awdiv 04C8                        __pcinit 05C2                        __ramtop 1000  
                      __ptext0 0404                        __ptext1 062C                        __ptext2 05F4  
                      __ptext3 0612                        __ptext4 065C                        __ptext5 0584  
                      __ptext7 0662                        __ptext8 0668                        __ptext9 0648  
                    _T0CONbits 000FD5           end_of_initialization 05EE                        postdec1 000FE5  
                      postinc0 000FEE                      _SETUP_PWM 0584                      _SETUP_i2c 0612  
                    _TRISAbits 000F92                      _TRISBbits 000F93                      _TRISCbits 000F94  
 __size_of_SETUP_T0_deactivate 0008    __size_of_SETUP_swI2C_intOff 0006                     ?_SETUP_PWM 001F  
                   ?_SETUP_i2c 001F                  __pidataCOMRAM 063A              __size_of_SETUP_io 001E  
          start_initialization 05C2              _SETUP_swI2C_intOn 065C             ?_SETUP_swI2C_intOn 001F  
 __end_of_InterruptHandlerHigh 0400            ??_SETUP_swI2C_intOn 0038                    __pbssCOMRAM 0001  
                  _AIL_PWM_REG 0049      __end_of_SETUP_swI2C_intOn 0662      __size_of_SETUP_releaseI2C 0006  
           _AIL_PWM_BUFFER_REG 0005                      __pintcode 0008                       ?___awdiv 001F  
                  ??_SETUP_PWM 0038                    ??_SETUP_i2c 0038               __CFG_PRICLKEN$ON 000000  
            _SETUP_T0_activate 0648    __end_ofi2_SETUP_swI2C_intOn 0674             ?_SETUP_T0_activate 001F  
          ??_SETUP_T0_activate 0020                       _LATAbits 000F89                       _LATBbits 000F8A  
                     _LATCbits 000F8B                       _PIE1bits 000F9D                  ??_SETUP_clock 0038  
                     _PIR1bits 000F9E                       _RCONbits 000FD0            _SETUP_T0_deactivate 0654  
                     _SETUP_io 05F4                    _ESC_PWM_REG 004F      __end_of_SETUP_T0_activate 0654  
         _InterruptHandlerHigh 0008     __size_of_SETUP_swI2C_intOn 0006           ?_SETUP_T0_deactivate 001F  
                  _INTCON2bits 000FF1                      copy_data0 05E2                    _AUX_PWM_REG 004B  
                     __Hrparam 0000                       __Lrparam 0000             __CFG_BOREN$SBORDIS 000000  
             __size_of___awdiv 00BC            __end_of_SETUP_clock 063A          ?_InterruptHandlerHigh 001F  
                     _checksum 0015          ??_SETUP_T0_deactivate 001F                       __ptext10 0654  
                     __ptext11 04C8                       __ptext12 066E                       __ptext13 0000  
                 _SSP1CON1bits 000FC6                   _SSP1CON2bits 000FC5               _SETUP_releaseI2C 0668  
                __size_of_main 00C4     __end_of_SETUP_swI2C_intOff 0668     __size_of_SETUP_T0_activate 000C  
                 _SSP1STATbits 000FC7                   _RUDD_PWM_REG 0053                    _OSCTUNEbits 000F9B  
                   _INTCONbits 000FF2                       intlevel2 0000                    _SETUP_clock 062C  
                   _OSCCONbits 000FD3         ??_InterruptHandlerHigh 0028              __CFG_FOSC$INTIO67 000000  
                _kickAutoCount 0001  
